c__builtin__
set
p1
((lp2
Vraining
p3
aVradarxcrave
p4
aVyellow
p5
aVfour
p6
aVimji
p7
aVcherrim
p8
aVconjure
p9
aVcanes
p10
aVsnowing
p11
aVisaih
p12
aVotra
p13
aVlori
p14
aVlord
p15
aVpaccadoodle
p16
aVshaving
p17
aVcallin
p18
aVlumix
p19
aVkent
p20
aVgimmie
p21
aVmssdot
p22
aVscreaming
p23
aVedaulton
p24
aVgracechild
p25
aVbjorli
p26
aVdisturb
p27
aVprize
p28
aVmegelder
p29
aVwednesday
p30
aVoooo
p31
aVhaben
p32
aVcrotch
p33
aVoooh
p34
aVtrumpette
p35
aVspecially
p36
aVtired
p37
aVsnuggles
p38
aVdanmerriweather
p39
aVbacon
p40
aVpulse
p41
aVbudget
p42
aVtires
p43
aVsecond
p44
aVstarhawk
p45
aVheya
p46
aVadmire
p47
aVerrors
p48
aVthedangles
p49
aVmarching
p50
aVgroupie
p51
aVshocks
p52
aVpoohpot
p53
aVspecialist
p54
aVinthiscity
p55
aVrestylestari
p56
aVherd
p57
aVnaww
p58
aVnawt
p59
aVdjcookz
p60
aVdora
p61
aVemmerson
p62
aVecomonday
p63
aVkids
p64
aVacepero
p65
aVk
aVreports
p66
aVsevenmac
p67
aVkidd
p68
aVadvantages
p69
aVdivide
p70
aVrocksteady
p71
aVnotthewinner
p72
aVstern
p73
aVmisselizabeth
p74
aVshotdown
p75
aVflurrying
p76
aVamberpacific
p77
aVcheating
p78
aVdna
p79
aVspoke
p80
aVbrowse
p81
aVfruitlatte
p82
aVdnt
p83
aVdnw
p84
aVsymphony
p85
aVmusic
p86
aVdns
p87
aVstrike
p88
aVgrahams
p89
aVxjoannnx
p90
aVpaperwork
p91
aVholy
p92
aVrelax
p93
aVsuccessful
p94
aVbrings
p95
aVmoyles
p96
aVluttrell
p97
aVhurt
p98
aVbadtimes
p99
aVholi
p100
aVgoddammit
p101
aVstylenbeautydoc
p102
aVangeeel
p103
aVhold
p104
aVunpack
p105
aVhola
p106
aVtonyhawk
p107
aVlocked
p108
aVbrianso
p109
aVfancast
p110
aVhedydd
p111
aVteman
p112
aVsweeter
p113
aVhomeworkkk
p114
aVuiprogressview
p115
aVwana
p116
aVwang
p117
aVwand
p118
aVmuahaha
p119
aVcharlton
p120
aVhumanintersect
p121
aVcurrency
p122
aVskdickey
p123
aVreviewing
p124
aVwant
p125
aVjackamon
p126
aVabsolute
p127
aVpreferably
p128
aVhoe
p129
aVknows
p130
aVcomplaining
p131
aVhoo
p132
aVhom
p133
aVcopious
p134
aVmorrrinnn
p135
aVclubbing
p136
aVrevisin
p137
aVyum
p138
aVshrug
p139
aVcadence
p140
aVstephy
p141
aVbeauty
p142
aVmyloc
p143
aVcying
p144
aVwrong
p145
aVbsnl
p146
aVmegodbike
p147
aVstarlight
p148
aVsquink
p149
aVhelsinki
p150
aVrevolt
p151
aVcapoeira
p152
aVchildhood
p153
aVtulip
p154
aVtweethearts
p155
aVkeeps
p156
aVfleurylis
p157
aVwing
p158
aVrawhide
p159
aVjelous
p160
aVfeedback
p161
aVearache
p162
aVwhizzing
p163
aVbilson
p164
aVmabel
p165
aVrewarded
p166
aVaargh
p167
aVbeethousand
p168
aVfir
p169
aVconned
p170
aVfix
p171
aVwickedlm
p172
aVkenwood
p173
aVfid
p174
aVwales
p175
aVfin
p176
aVeasier
p177
aVlambert
p178
aVelementary
p179
aVtwits
p180
aVsaritaonline
p181
aVyoiu
p182
aVrepresents
p183
aVthenewbnb
p184
aVcodliver
p185
aVaddicted
p186
aVtekkdave
p187
aVexpectancy
p188
aVsnakes
p189
aVcschoenfeld
p190
aVturnin
p191
aVspider
p192
aVbowls
p193
aVpasswords
p194
aVgogoma
p195
aVefron
p196
aVmoriesbel
p197
aVwhit
p198
aVblinded
p199
aVkitrell
p200
aVru
p201
aVtrending
p202
aVoprah
p203
aVindiscretion
p204
aVsms
p205
aVdrakkardnoir
p206
aVre
p207
aVdsl
p208
aVsml
p209
aVra
p210
aVrb
p211
aVdsi
p212
aVro
p213
aVofcourse
p214
aVdsc
p215
aVdannywood
p216
aVshotbykim
p217
aVskitch
p218
aVtacklesmooshes
p219
aVrustyrockets
p220
aVsprouses
p221
aVsurveys
p222
aVshaaqt
p223
aVhartluck
p224
aVabbixnicole
p225
aVnecessarily
p226
aVgrapes
p227
aVestimate
p228
aVstacy
p229
aVsophieharding
p230
aVaccts
p231
aVate
p232
aVata
p233
aVprincessaymi
p234
aVatm
p235
aVphotoshoppings
p236
aVath
p237
aVdrruthwalker
p238
aVfrequantly
p239
aVshipped
p240
aVdisturbed
p241
aVtempting
p242
aVsuggestion
p243
aVchronic
p244
aVspeeds
p245
aVnigel
p246
aVelmo
p247
aVsimonborgert
p248
aVseinfeld
p249
aVareloz
p250
aVkfc
p251
aVcustomization
p252
aVwasn
p253
aVlomobabes
p254
aVffox
p255
aVbitten
p256
aVtraction
p257
aVolds
p258
aVbasketball
p259
aVsweeeet
p260
aVifightdragons
p261
aVneeded
p262
aVlisted
p263
aVblossoms
p264
aVlegs
p265
aVbitter
p266
aVjonathanrknight
p267
aVdanish
p268
aVnige
p269
aVninfreak
p270
aVgeneva
p271
aVrelative
p272
aVsampsa
p273
aVwisdom
p274
aVthatitans
p275
aVaaaahhh
p276
aVpredictable
p277
aVparanoidartemus
p278
aVcrawl
p279
aVcarrick
p280
aVkirtib
p281
aVspayed
p282
aVbiffs
p283
aVdarliiiing
p284
aVheyyy
p285
aVeasyy
p286
aVhandcuffs
p287
aVtree
p288
aVwhinging
p289
aVtrey
p290
aVpneumonia
p291
aVtres
p292
aVfeeling
p293
aVstroughtonsmith
p294
aVrunner
p295
aVboston
p296
aVtwlol
p297
aVjohnianmarshall
p298
aVdozed
p299
aVlemonsareyellow
p300
aVpicks
p301
aVyawwwwwwning
p302
aVdozen
p303
aVvgl
p304
aVugghh
p305
aVscraped
p306
aVcorbin
p307
aVresponsible
p308
aVeagerly
p309
aVokie
p310
aVpittsburgh
p311
aVcausing
p312
aVamusing
p313
aVjohnnyverse
p314
aVsuperkeely
p315
aVshall
p316
aVslumdog
p317
aVannweezy
p318
aVwells
p319
aVmouth
p320
aValan
p321
aVletter
p322
aVgizzle
p323
aVshozu
p324
aVcaptzoden
p325
aVmacbook
p326
aVmorality
p327
aVtinytwitter
p328
aVsinger
p329
aVepisode
p330
aVthaan
p331
aVcamp
p332
aVadognamedbo
p333
aVspend
p334
aVcami
p335
aVdrunks
p336
aVlibbyoliver
p337
aVinfinately
p338
aVsquarespace
p339
aVects
p340
aVnominated
p341
aVnicolevicious
p342
aVprix
p343
aVreschedule
p344
aVparticipate
p345
aVhungary
p346
aVcheaply
p347
aVfost
p348
aVlessons
p349
aVorleans
p350
aVunitzeroone
p351
aVscreamyx
p352
aVriayn
p353
aVshoppping
p354
aVbust
p355
aVrihanna
p356
aVtheme
p357
aVbliss
p358
aVtouched
p359
aVrich
p360
aVairwanderor
p361
aVmend
p362
aVplate
p363
aVmoospeare
p364
aVustre
p365
aVintven
p366
aVchampaign
p367
aVfung
p368
aVchristft
p369
aVarghhh
p370
aVclumsiness
p371
aVtipp
p372
aVsammulchan
p373
aVunfortunately
p374
aVsadface
p375
aVspilling
p376
aVnicely
p377
aVtights
p378
aVaplusk
p379
aVaccordance
p380
aVpatch
p381
aVrelease
p382
aVboarded
p383
aVyippie
p384
aVbleu
p385
aVblew
p386
aVmandatory
p387
aVdisaster
p388
aVfair
p389
aVspindeezy
p390
aVsensitivity
p391
aVmusicalee
p392
aVgoodnight
p393
aVradius
p394
aVerika
p395
aVfail
p396
aVbarcampbkk
p397
aVresigned
p398
aVhammer
p399
aVbleh
p400
aVbest
p401
aVetis
p402
aVpearlofthesea
p403
aVmanson
p404
aVlots
p405
aVlotr
p406
aVirs
p407
aVrings
p408
aVxxfriendxx
p409
aVlott
p410
aVunto
p411
aVgoooodnight
p412
aVyogurt
p413
aVgeorgesampson
p414
aVirc
p415
aVglasgow
p416
aVfilos
p417
aVaaronwells
p418
aVextend
p419
aVyardwork
p420
aVwooowwwwwwww
p421
aVmardhiah
p422
aVsofiesunshine
p423
aVcut
p424
aVwtd
p425
aVwtf
p426
aVwth
p427
aVdebt
p428
aVnahhhh
p429
aVpity
p430
aVmeu
p431
aVaccident
p432
aVatnormo
p433
aVadapter
p434
aVputer
p435
aVchrizzotl
p436
aVheating
p437
aVgantzgraf
p438
aVbradhfh
p439
aVstuttgart
p440
aVdents
p441
aVnkcovergrrl
p442
aVdballardreisch
p443
aVkatiapsyche
p444
aVcanyon
p445
aVmchammer
p446
aVhumming
p447
aVsmackdown
p448
aVbuttload
p449
aVfrc
p450
aVridiously
p451
aVeager
p452
aVchrome
p453
aVfrj
p454
aVfri
p455
aVfro
p456
aVfrm
p457
aVmuch
p458
aVdork
p459
aVcatatonichic
p460
aVchromachris
p461
aVpenndbad
p462
aVdots
p463
aVobese
p464
aVlife
p465
aVcrying
p466
aVhospitalized
p467
aVjggggg
p468
aVmoneys
p469
aVdave
p470
aVlift
p471
aVtagless
p472
aVchild
p473
aVworked
p474
aVhaters
p475
aVspin
p476
aVchill
p477
aVmykele
p478
aVroflmao
p479
aVprofessionally
p480
aVemploy
p481
aVremembering
p482
aVridiculously
p483
aVshirou
p484
aVmajic
p485
aVtomas
p486
aVditching
p487
aVplayer
p488
aVeighteen
p489
aVanticipating
p490
aVpeachyyyy
p491
aVshaunashaw
p492
aVmadonna
p493
aVcrusaders
p494
aVmemorial
p495
aVthingy
p496
aVfotos
p497
aVhiveminder
p498
aVomarion
p499
aVformat
p500
aVhonk
p501
aVbigkapitol
p502
aVsplit
p503
aVakikoh
p504
aVtmcfeeley
p505
aVtoasted
p506
aVfreeness
p507
aVtemplates
p508
aVflipflops
p509
aVinadvertently
p510
aVrosiesiman
p511
aVkiruba
p512
aVjks
p513
aVslovenia
p514
aVfishy
p515
aVexmi
p516
aVsupper
p517
aVuuuuuuuuuuuuuu
p518
aVtune
p519
aVjkc
p520
aVfeeshda
p521
aVcrosstown
p522
aVshitty
p523
aVhernameisnicki
p524
aVbonny
p525
aVcoldness
p526
aVjonpauldavies
p527
aVnomore
p528
aVdenyalle
p529
aVmaxime
p530
aVcorporate
p531
aVcustomizedwed
p532
aVopinions
p533
aVlasst
p534
aVkroc
p535
aVgivin
p536
aVucap
p537
aVsleepy
p538
aVwhatnot
p539
aVhallucinating
p540
aVsnickered
p541
aVhah
p542
aVhai
p543
aVbroncos
p544
aVham
p545
aVjimayson
p546
aVanistorm
p547
aVease
p548
aVhac
p549
aVhae
p550
aVhax
p551
aVooooo
p552
aVprison
p553
aVduffel
p554
aVhat
p555
aVrudyspeaks
p556
aVhav
p557
aVroflol
p558
aVthesupergirl
p559
aVdonnamirfield
p560
aValohaarleen
p561
aVzackalltimelow
p562
aVposed
p563
aVblueee
p564
aVrocket
p565
aVgameboy
p566
aVbirth
p567
aVunique
p568
aVallymcfly
p569
aVimiss
p570
aVrewatching
p571
aVclaireehenry
p572
aVseaside
p573
aVremind
p574
aVfestivities
p575
aVsundried
p576
aVfiofo
p577
aVbattlefield
p578
aVbeneficial
p579
aVold
p580
aVdiverdown
p581
aVweds
p582
aVoli
p583
aVcreed
p584
aVcrown
p585
aVadelgabot
p586
aVconsultants
p587
aVtooken
p588
aVarmando
p589
aVdvdstelt
p590
aVvatd
p591
aVbillboard
p592
aVkugh
p593
aVcraftyquincy
p594
aVyummit
p595
aVmcleod
p596
aVsociology
p597
aVattendees
p598
aVbottom
p599
aVlorenzohenrie
p600
aVmackenziefox
p601
aVcraigavon
p602
aVcreative
p603
aVichin
p604
aVmuito
p605
aVuma
p606
aVfob
p607
aVfdisk
p608
aVuml
p609
aVhurtsss
p610
aVcompletly
p611
aVshantecurtis
p612
aVshakes
p613
aVlooooong
p614
aVimrananwar
p615
aVdnf
p616
aVdefensive
p617
aVlosing
p618
aVborked
p619
aVyoko
p620
aVaboard
p621
aVfeelinq
p622
aVstokez
p623
aVfranklero
p624
aVdollars
p625
aVo
aVbicentennial
p626
aVwarlach
p627
aVemabarrassed
p628
aVstoked
p629
aVmimiparadise
p630
aVdisqualified
p631
aVffs
p632
aVteresamedeiros
p633
aVsob
p634
aVstatements
p635
aVsod
p636
aVneocon
p637
aVjellicle
p638
aVhoneymoon
p639
aVmba
p640
aVsoo
p641
aVthankful
p642
aVraiser
p643
aVschiphol
p644
aVmangos
p645
aVwrap
p646
aVsophiehelene
p647
aVmbp
p648
aVppol
p649
aVhallo
p650
aVsupport
p651
aVknowing
p652
aVsmdjn
p653
aVnova
p654
aVtame
p655
aVwidth
p656
aVjoseph
p657
aVwordpress
p658
aVtriplets
p659
aVsniffles
p660
aVlaunching
p661
aVhappy
p662
aVjourno
p663
aVoffer
p664
aVtigers
p665
aVpaypal
p666
aVbudak
p667
aVguardiantech
p668
aVgrrrrrrr
p669
aVhemisphere
p670
aVthehush
p671
aVcongratulations
p672
aVmusik
p673
aVinside
p674
aVlillyputian
p675
aVsbaicker
p676
aVwhuts
p677
aVjizzed
p678
aVserengeti
p679
aVrerun
p680
aVsmashed
p681
aVpilvlp
p682
aVduet
p683
aVpanels
p684
aVseafood
p685
aVjasoncastro
p686
aVtonne
p687
aVlater
p688
aVdisgrace
p689
aViamadamsullivan
p690
aVtournament
p691
aVwarisara
p692
aVcrumble
p693
aVexist
p694
aVtimezone
p695
aVnegotiations
p696
aVslideshare
p697
aVxki
p698
aVrelay
p699
aVlylas
p700
aVoban
p701
aVriverview
p702
aVtoots
p703
aVrspb
p704
aVroll
p705
aVintend
p706
aVpalms
p707
aVmeghan
p708
aVoutage
p709
aVoutttt
p710
aVyahoo
p711
aVldnlmusic
p712
aVdevon
p713
aVintent
p714
aVkitson
p715
aVprofessional
p716
aVbatmans
p717
aVdjkaton
p718
aVcongested
p719
aVnxt
p720
aVpeterdragontail
p721
aVidnt
p722
aVottawa
p723
aVwarm
p724
aVpush
p725
aVboreddd
p726
aVsniffer
p727
aVbfast
p728
aVcincinnati
p729
aVtltsym
p730
aVgowf
p731
aVost
p732
aVgarylamb
p733
aVgallbladder
p734
aVskiing
p735
aVmuppet
p736
aVjeffreecuntstar
p737
aVprimeval
p738
aVvet
p739
aVver
p740
aVpiewacket
p741
aVvey
p742
aVvee
p743
aVsneakers
p744
aVdelicateone
p745
aVworkshops
p746
aVvioletscruk
p747
aVchoice
p748
aVgloomy
p749
aVghostbusters
p750
aVstays
p751
aVjordaaaannnn
p752
aVamandaleeclark
p753
aVkonstpaus
p754
aVtear
p755
aVteas
p756
aVollie
p757
aVpea
p758
aVleave
p759
aVscchaudhary
p760
aVcooke
p761
aVhittin
p762
aVrents
p763
aVminion
p764
aVsigh
p765
aVkimkardashian
p766
aVsign
p767
aVbl
p768
aVbaggins
p769
aVjanetdamitajo
p770
aVhebbie
p771
aVfalling
p772
aVcrashing
p773
aVboost
p774
aVbn
p775
aVaghh
p776
aVjury
p777
aVfuneral
p778
aVaddress
p779
aValone
p780
aValong
p781
aVbenson
p782
aVpassengers
p783
aVvishwaskasat
p784
aVgulf
p785
aVqueue
p786
aVdjknucklehead
p787
aVthepioneerwoman
p788
aVbq
p789
aVtasks
p790
aVlove
p791
aVchicagomichael
p792
aVprefer
p793
aVolabini
p794
aVipl
p795
aVbloody
p796
aVmarvelous
p797
aVrandoms
p798
aVfake
p799
aVsidneymohede
p800
aVlansing
p801
aVsunbathing
p802
aVworking
p803
aVhomesick
p804
aVamazeballs
p805
aVpositive
p806
aVangry
p807
aVbritneyspears
p808
aVfilms
p809
aVloving
p810
aVintroducing
p811
aVafford
p812
aVburningsound
p813
aVvisual
p814
aVeverywhere
p815
aVscratches
p816
aVlalalala
p817
aVdragons
p818
aVbehalf
p819
aVmascot
p820
aVhoney
p821
aVdeserved
p822
aVpooper
p823
aVbeaniebanks
p824
aVoverloaded
p825
aVbelieves
p826
aVphoebe
p827
aVfollowing
p828
aVpumpkin
p829
aVfbish
p830
aVmirrors
p831
aVmuah
p832
aVawesome
p833
aVmuap
p834
aVmuar
p835
aVoatmeal
p836
aVoffense
p837
aVcleartrip
p838
aVfoodz
p839
aVwinter
p840
aVpokoknya
p841
aVthanking
p842
aVimmune
p843
aVvancouver
p844
aVfps
p845
aVcannon
p846
aVsureeee
p847
aVedinburgh
p848
aVsnaps
p849
aVlaundry
p850
aVexplorer
p851
aVblogtv
p852
aVslush
p853
aVspot
p854
aVdats
p855
aVliverpooldan
p856
aVblurgh
p857
aVhealeravalaura
p858
aVdate
p859
aVsuck
p860
aVdove
p861
aVsy
p862
aVsurfing
p863
aVnatural
p864
aVwhyyyyy
p865
aVss
p866
aVwheelchair
p867
aVshitzngigz
p868
aVsu
p869
aVsk
p870
aVthunders
p871
aVsi
p872
aVmango
p873
aVsn
p874
aVsm
p875
aVswollen
p876
aVsnowed
p877
aVwolves
p878
aVlostducky
p879
aVsg
p880
aVsf
p881
aVvike
p882
aVdrying
p883
aVyswepk
p884
aVdougiemcfly
p885
aVthomson
p886
aVcourse
p887
aVcaalie
p888
aVlovelies
p889
aVabduzeedo
p890
aVtore
p891
aVavid
p892
aVyawning
p893
aVsolace
p894
aVcarnalis
p895
aVjim
p896
aVtori
p897
aVhot
p898
aVfaves
p899
aVpushplaynick
p900
aVtorw
p901
aVjiu
p902
aVgeekjames
p903
aVsakurasyaoran
p904
aVlimewire
p905
aVmatches
p906
aVpushover
p907
aVinsomnia
p908
aVnation
p909
aVhaveyouever
p910
aVrecords
p911
aVdrilling
p912
aVsorted
p913
aVdjcrystalellis
p914
aVahaha
p915
aVmatched
p916
aVglinner
p917
aVgriffmiester
p918
aVhancock
p919
aVdidn
p920
aVbowling
p921
aVstonexbaz
p922
aVgaryvee
p923
aVmidlife
p924
aVshabbos
p925
aVearthlifeinst
p926
aVfeeeel
p927
aVcompiz
p928
aVbeetle
p929
aVfelicityfuller
p930
aVcmykdorothy
p931
aVdanielclancy
p932
aVcanvas
p933
aVtomfelton
p934
aVughhhhh
p935
aVsammutimer
p936
aVsunburnt
p937
aVssowy
p938
aVhcc
p939
aVseriously
p940
aVexploding
p941
aVinternet
p942
aVsuggesting
p943
aVformula
p944
aVkidchan
p945
aVbla
p946
aVrmilana
p947
aVflurries
p948
aVsheffield
p949
aVbullring
p950
aVpossibility
p951
aVquite
p952
aVcoulsonmacleod
p953
aVmime
p954
aVcrazier
p955
aVbesides
p956
aVgrandma
p957
aVmimi
p958
aVquits
p959
aVvivatheblock
p960
aVtraining
p961
aVbrasil
p962
aVamyrsward
p963
aVspam
p964
aVpunk
p965
aVmodest
p966
aVspending
p967
aVpunt
p968
aVmassive
p969
aVrouter
p970
aVbucknall
p971
aVmucha
p972
aVintuition
p973
aVmizfitonline
p974
aVpotter
p975
aVone
p976
aVbeethoven
p977
aVnatch
p978
aVvote
p979
aVcherylmcfly
p980
aVmobypicture
p981
aVfml
p982
aVstuffed
p983
aVhandbook
p984
aVuke
p985
aVbits
p986
aVevatweets
p987
aVshawl
p988
aVculch
p989
aVpadding
p990
aVridiculous
p991
aVboyfriend
p992
aVginoandfran
p993
aVtranslate
p994
aVvemsteroo
p995
aVdepressed
p996
aVfuture
p997
aVvalentiinaa
p998
aVitskeribaby
p999
aVwinkle
p1000
aVkcinwpb
p1001
aVwandering
p1002
aVdamned
p1003
aVtheroguegirl
p1004
aVprospect
p1005
aVillness
p1006
aVsan
p1007
aVsam
p1008
aVturned
p1009
aVlocations
p1010
aVsad
p1011
aVwoah
p1012
aVsay
p1013
aVburied
p1014
aVlurking
p1015
aVallen
p1016
aVsat
p1017
aVnott
p1018
aVhawaiian
p1019
aVpiercings
p1020
aVneiet
p1021
aVnueck
p1022
aVrebeccamezzino
p1023
aVmassa
p1024
aVtake
p1025
aVwanting
p1026
aVciararyandreams
p1027
aVpimple
p1028
aVsarahshah
p1029
aVbutterfly
p1030
aVironically
p1031
aVprinter
p1032
aVabut
p1033
aVgrumpylazybum
p1034
aVknee
p1035
aVamerah
p1036
aVpages
p1037
aVlawn
p1038
aVdaughtry
p1039
aVtbyg
p1040
aVphil
p1041
aVinfections
p1042
aVdrive
p1043
aVheidiheartshugs
p1044
aVways
p1045
aVtouche
p1046
aVcrawfish
p1047
aVchattyman
p1048
aVhanster
p1049
aVlaws
p1050
aVcobra
p1051
aVmorrissey
p1052
aVbright
p1053
aVimagined
p1054
aVslow
p1055
aVbighoodboss
p1056
aVouchy
p1057
aVcrazyy
p1058
aVnugoth
p1059
aVphillymac
p1060
aVrobo
p1061
aVtears
p1062
aVgoing
p1063
aVhockey
p1064
aVslob
p1065
aVteary
p1066
aVvibhy
p1067
aVcoment
p1068
aVreedcourty
p1069
aVbeatles
p1070
aVgoodluck
p1071
aVvuhhnessa
p1072
aVapprently
p1073
aVcursing
p1074
aVsouthside
p1075
aVprime
p1076
aVresource
p1077
aVpimp
p1078
aVartist
p1079
aVborrow
p1080
aVworried
p1081
aVtiki
p1082
aVtryn
p1083
aVbombs
p1084
aVworries
p1085
aVhotness
p1086
aVvision
p1087
aVarrival
p1088
aVgreggrunberg
p1089
aVlibtorrent
p1090
aVkeyboard
p1091
aVyuss
p1092
aVanyways
p1093
aVsurgery
p1094
aVerica
p1095
aVderruedi
p1096
aVreceipt
p1097
aVbrainstuck
p1098
aVpoopy
p1099
aVteeny
p1100
aVbureau
p1101
aVmoons
p1102
aVaffecting
p1103
aVuninstalled
p1104
aVhawkcam
p1105
aVmoony
p1106
aVtheviperroom
p1107
aVtwyst
p1108
aVdavidarchie
p1109
aVyumm
p1110
aVspartan
p1111
aVmosquitos
p1112
aVsupermarket
p1113
aVhotsawce
p1114
aVgratefully
p1115
aVchihuahua
p1116
aVawards
p1117
aVjets
p1118
aVspark
p1119
aVmans
p1120
aVmanu
p1121
aVcramp
p1122
aVmany
p1123
aVindulgence
p1124
aVmillionaire
p1125
aVflipped
p1126
aVooo
p1127
aVmann
p1128
aVsweetemmaxxx
p1129
aVants
p1130
aVnooooo
p1131
aVtwin
p1132
aVanti
p1133
aVante
p1134
aVtwib
p1135
aVcaring
p1136
aVstretch
p1137
aVtipsquirrel
p1138
aVlocally
p1139
aVvacation
p1140
aVdawnrichard
p1141
aVoberst
p1142
aVkatharine
p1143
aVhyperbets
p1144
aVwants
p1145
aVchan
p1146
aVcoughing
p1147
aVformed
p1148
aVlaney
p1149
aVquarantined
p1150
aVphotos
p1151
aVobserve
p1152
aVbonjour
p1153
aVjaffa
p1154
aVclears
p1155
aVleites
p1156
aVstraighten
p1157
aVbufala
p1158
aVtwitterville
p1159
aVsqueezed
p1160
aVsituation
p1161
aVshanti
p1162
aVive
p1163
aVawww
p1164
aVinternets
p1165
aVblap
p1166
aVengaged
p1167
aVfamu
p1168
aVbros
p1169
aVblah
p1170
aVbron
p1171
aVjulikim
p1172
aVblizzarding
p1173
aVtoothache
p1174
aVtechnology
p1175
aVblad
p1176
aVblag
p1177
aVspunk
p1178
aVdragging
p1179
aVshuts
p1180
aVphrack
p1181
aVdawniecahill
p1182
aVshrm
p1183
aVtaniarellie
p1184
aVsweetdreams
p1185
aVcramming
p1186
aVsingapore
p1187
aVjosette
p1188
aVcheers
p1189
aVharris
p1190
aVwired
p1191
aVtinks
p1192
aVbooster
p1193
aVawesomeness
p1194
aVeliiiiza
p1195
aVcoursework
p1196
aVitalylogue
p1197
aVnothin
p1198
aVderrickhoh
p1199
aVleilaya
p1200
aVcosts
p1201
aVtrains
p1202
aVgrumpy
p1203
aVhubby
p1204
aVsummer
p1205
aVsprayed
p1206
aVplurkers
p1207
aVhiyer
p1208
aVfiveandahalfgirls
p1209
aVhayles
p1210
aVinvalid
p1211
aVrobins
p1212
aVhayley
p1213
aVweekly
p1214
aVgrounded
p1215
aVcivil
p1216
aVcolor
p1217
aVabsolutly
p1218
aVsaddened
p1219
aVjoyful
p1220
aVstarving
p1221
aVaround
p1222
aVpor
p1223
aVsums
p1224
aVregis
p1225
aVtraffic
p1226
aVdarn
p1227
aVacronyms
p1228
aVdarl
p1229
aVshozzyshozzy
p1230
aVworld
p1231
aVdare
p1232
aVclan
p1233
aVclam
p1234
aVintel
p1235
aVstranger
p1236
aVkenney
p1237
aVshutter
p1238
aVgimme
p1239
aVclap
p1240
aVbrite
p1241
aVgrub
p1242
aVlebanon
p1243
aVmarikurisato
p1244
aVgweedore
p1245
aVgilmore
p1246
aVbrits
p1247
aVplayin
p1248
aVpickles
p1249
aVkasarap
p1250
aVyesss
p1251
aVehugs
p1252
aVdimensions
p1253
aVjgn
p1254
aVcavity
p1255
aVmemories
p1256
aVnooo
p1257
aVexil
p1258
aVkismet
p1259
aVmeesterbob
p1260
aVbabenatasha
p1261
aVnoor
p1262
aVbono
p1263
aVgingergunner
p1264
aVrefer
p1265
aVaccessing
p1266
aVtransformers
p1267
aVzest
p1268
aVinternship
p1269
aVvanessaahudgens
p1270
aVbooooo
p1271
aVtwloha
p1272
aVthailand
p1273
aVacc
p1274
aVmajoring
p1275
aVgeiselwind
p1276
aVace
p1277
aVpackage
p1278
aVack
p1279
aVfavorite
p1280
aVtumor
p1281
aVsplodz
p1282
aVlinesvinesandtryingtimes
p1283
aVneighbor
p1284
aVact
p1285
aVaccom
p1286
aVmean
p1287
aVtangledtara
p1288
aVcatep
p1289
aVominous
p1290
aVoder
p1291
aVimage
p1292
aVshiet
p1293
aVhomeless
p1294
aVbjp
p1295
aVanothera
p1296
aVtechnically
p1297
aVcared
p1298
aVdappy
p1299
aVdanaykroyd
p1300
aVhey
p1301
aVhee
p1302
aVmissy
p1303
aVslopes
p1304
aVheh
p1305
aVmisss
p1306
aVlang
p1307
aVyays
p1308
aVyayy
p1309
aVrelatives
p1310
aVpissy
p1311
aVyaya
p1312
aVmick
p1313
aVmich
p1314
aVmice
p1315
aVhousewives
p1316
aVbuying
p1317
aVhandsome
p1318
aVabused
p1319
aVpull
p1320
aVrush
p1321
aVoctober
p1322
aVrescuing
p1323
aVxxxxxxx
p1324
aVruss
p1325
aVagree
p1326
aVpeacemajor
p1327
aVgone
p1328
aVgong
p1329
aVbutthole
p1330
aVag
p1331
aVohk
p1332
aVexhausted
p1333
aVah
p1334
aVak
p1335
aVal
p1336
aVar
p1337
aVaw
p1338
aVav
p1339
aVay
p1340
aVaz
p1341
aVcream
p1342
aVyoga
p1343
aVbantamspectra
p1344
aVyogo
p1345
aVnovice
p1346
aVgraduate
p1347
aVtight
p1348
aVyummmm
p1349
aVpuppy
p1350
aVshaun
p1351
aVrghwang
p1352
aVgifts
p1353
aVrw
p1354
aVnatalie
p1355
aVsobbing
p1356
aVtricks
p1357
aVrs
p1358
aVdaysss
p1359
aVadam
p1360
aVcpu
p1361
aVlatinluvly
p1362
aVconsider
p1363
aVcaused
p1364
aVinstincts
p1365
aVfishbone
p1366
aVscc
p1367
aVimproved
p1368
aVtours
p1369
aVwelfare
p1370
aVtheotherlily
p1371
aVnicci
p1372
aVevicted
p1373
aVsympa
p1374
aVnickjfrost
p1375
aVty
p1376
aVtt
p1377
aVtu
p1378
aVtr
p1379
aVts
p1380
aVchampions
p1381
aVtm
p1382
aVtj
p1383
aVtk
p1384
aVth
p1385
aVdressing
p1386
aVsmile
p1387
aVte
p1388
aVhomepage
p1389
aVtc
p1390
aVta
p1391
aVappointment
p1392
aVreturned
p1393
aVcheckin
p1394
aVswallows
p1395
aVschofe
p1396
aVdiary
p1397
aVmanageable
p1398
aVcondition
p1399
aVexpats
p1400
aVcable
p1401
aVmisinformation
p1402
aVlaying
p1403
aVjoined
p1404
aVlarge
p1405
aVharry
p1406
aVsumwhere
p1407
aVdhorse
p1408
aVirisheyz
p1409
aVsync
p1410
aVpast
p1411
aVpaulmason
p1412
aVrachmcfly
p1413
aVpass
p1414
aVchriscornell
p1415
aVinvestment
p1416
aVempressericka
p1417
aVanywho
p1418
aVrichard
p1419
aVclock
p1420
aVpoisonous
p1421
aVfucks
p1422
aVmcjayxo
p1423
aVhasn
p1424
aVmichaelsheen
p1425
aVmadinalake
p1426
aVhours
p1427
aVbloggers
p1428
aVpalin
p1429
aVconcluding
p1430
aVnovember
p1431
aVrachealblack
p1432
aVtomoro
p1433
aVbrutal
p1434
aVpics
p1435
aVwogan
p1436
aVsocial
p1437
aVsweetness
p1438
aVvia
p1439
aVfollowed
p1440
aVvid
p1441
aVvie
p1442
aVnumerology
p1443
aVtraumatized
p1444
aVvis
p1445
aVindoors
p1446
aVvit
p1447
aVpulls
p1448
aVsitepointdotcom
p1449
aVgosh
p1450
aVfavs
p1451
aVsilva
p1452
aVugghhh
p1453
aVpears
p1454
aVpearl
p1455
aVsitter
p1456
aVmoro
p1457
aVgorgeous
p1458
aVmora
p1459
aVteamellen
p1460
aVjtimberlake
p1461
aVteen
p1462
aVteel
p1463
aVgalleria
p1464
aVinitiated
p1465
aVchucky
p1466
aVteef
p1467
aVcompany
p1468
aVdooo
p1469
aVdoom
p1470
aVlemme
p1471
aVkrill
p1472
aVkenyon
p1473
aVkeeping
p1474
aVphillip
p1475
aVgarethemery
p1476
aVsneezin
p1477
aVinstalling
p1478
aVlearn
p1479
aVknocked
p1480
aVfacinelli
p1481
aVlilicosic
p1482
aVbeautiful
p1483
aVtimwd
p1484
aVyestee
p1485
aVscam
p1486
aVscan
p1487
aVglowmedia
p1488
aVsuggestions
p1489
aVsense
p1490
aVcherie
p1491
aVstation
p1492
aVscar
p1493
aVhuge
p1494
aViamjulito
p1495
aVimminent
p1496
aVhugh
p1497
aVlisalavie
p1498
aVish
p1499
aVfreshly
p1500
aVdessert
p1501
aVbrowns
p1502
aVwaved
p1503
aVplant
p1504
aVplans
p1505
aVcountryside
p1506
aVintuos
p1507
aVtreatments
p1508
aVentrepreneurship
p1509
aVsoundtrack
p1510
aVplane
p1511
aVunfun
p1512
aVwaves
p1513
aVmaltese
p1514
aVbackyard
p1515
aVlanka
p1516
aVbobbythomas
p1517
aVrefuse
p1518
aVimagery
p1519
aVwhitley
p1520
aVdavewiner
p1521
aVreplied
p1522
aVncis
p1523
aVitm
p1524
aVduznt
p1525
aVhartke
p1526
aVbrit
p1527
aVpaper
p1528
aVitx
p1529
aVreplies
p1530
aVbrianneudorff
p1531
aVwaleedjameel
p1532
aVinsted
p1533
aVbrie
p1534
aVbummed
p1535
aValle
p1536
aVtwurl
p1537
aVrapidly
p1538
aVallo
p1539
aValll
p1540
aVsymptoms
p1541
aVdammm
p1542
aVruining
p1543
aVbypass
p1544
aValvinkoay
p1545
aVally
p1546
aVasos
p1547
aVseverely
p1548
aVwasabi
p1549
aVkbye
p1550
aVolivia
p1551
aVweeds
p1552
aVsucked
p1553
aValwayz
p1554
aVhook
p1555
aVcoping
p1556
aValways
p1557
aVnauseous
p1558
aVmarleyuk
p1559
aVdenny
p1560
aVcourses
p1561
aVfound
p1562
aVerardo
p1563
aVreactions
p1564
aVtgaband
p1565
aVthrowin
p1566
aVtonite
p1567
aVblues
p1568
aVreally
p1569
aVanxious
p1570
aVfts
p1571
aVclarity
p1572
aVpsychology
p1573
aVftw
p1574
aVacademia
p1575
aVmisses
p1576
aVsignings
p1577
aVftf
p1578
aVdarling
p1579
aVftl
p1580
aVsatin
p1581
aVbelief
p1582
aVqualify
p1583
aVproxy
p1584
aVminorityx
p1585
aVjessicastrust
p1586
aVdirector
p1587
aVowners
p1588
aVdebby
p1589
aVcappadonna
p1590
aVsicker
p1591
aVemiiilylh
p1592
aVw
aVbumper
p1593
aVbernie
p1594
aVmajor
p1595
aVbabyyyy
p1596
aVrooted
p1597
aVslipped
p1598
aVlimerick
p1599
aVnumber
p1600
aVindiemoviemaker
p1601
aVkobe
p1602
aVguess
p1603
aVmerrion
p1604
aVheads
p1605
aVleverage
p1606
aVjet
p1607
aVxiq
p1608
aVshaylah
p1609
aVdenied
p1610
aVnoms
p1611
aVsickie
p1612
aVessays
p1613
aVsympathies
p1614
aVlonging
p1615
aVinterviewed
p1616
aVkaatje
p1617
aVorkut
p1618
aVfocusing
p1619
aVbillohbill
p1620
aVstairs
p1621
aVgrace
p1622
aVvocab
p1623
aVhiya
p1624
aVaaa
p1625
aVmoomimmel
p1626
aViranian
p1627
aVcondolences
p1628
aVmcfly
p1629
aVlayouts
p1630
aVaat
p1631
aVcannibal
p1632
aVaar
p1633
aVlisten
p1634
aVplurk
p1635
aVjoshfreese
p1636
aVbuffywoo
p1637
aVmissgiggly
p1638
aVbavarian
p1639
aVfights
p1640
aVmagical
p1641
aVweeeee
p1642
aVckergirl
p1643
aVsell
p1644
aVode
p1645
aVmandyyjirouxx
p1646
aValso
p1647
aVanalogy
p1648
aVtmoz
p1649
aVcoff
p1650
aVplay
p1651
aVyearbooks
p1652
aVindex
p1653
aVtehehehe
p1654
aVriskybusinessmb
p1655
aVyawn
p1656
aVvirus
p1657
aVplan
p1658
aVfunnier
p1659
aVfunnies
p1660
aVunderstands
p1661
aVomaha
p1662
aVcover
p1663
aVhyolee
p1664
aVtpr
p1665
aVgabi
p1666
aVasus
p1667
aVgabe
p1668
aVmicrosoft
p1669
aVstevegodbold
p1670
aVitouch
p1671
aVugh
p1672
aVgold
p1673
aVnikkiwoods
p1674
aVmoroccan
p1675
aVhadnt
p1676
aVsession
p1677
aVfreight
p1678
aVblender
p1679
aVaccess
p1680
aVwraps
p1681
aVciarra
p1682
aVsayin
p1683
aVcondos
p1684
aVwrites
p1685
aVfailed
p1686
aVjaniecwales
p1687
aVariixarii
p1688
aVgiants
p1689
aVjlsofficial
p1690
aVbanned
p1691
aVjasonong
p1692
aVrevesdoux
p1693
aVclosely
p1694
aVcampello
p1695
aVdamnit
p1696
aVkempequine
p1697
aVdustin
p1698
aVwiccan
p1699
aVsleeve
p1700
aVcry
p1701
aVstirling
p1702
aVanthonyborton
p1703
aVcrc
p1704
aVcaramel
p1705
aVblankenburg
p1706
aVtotalfilm
p1707
aVchallyzatb
p1708
aVsev
p1709
aVcreator
p1710
aVjade
p1711
aVsex
p1712
aVsee
p1713
aVzachsang
p1714
aVseb
p1715
aVsea
p1716
aVsem
p1717
aVproject
p1718
aVritz
p1719
aVfoxiehaha
p1720
aVmybe
p1721
aVbcause
p1722
aVevilunicorn
p1723
aVreleasing
p1724
aVmonsters
p1725
aVcompliment
p1726
aVeurope
p1727
aVhecka
p1728
aVnarnia
p1729
aVpaulharriott
p1730
aVlittleliverbird
p1731
aVjavascript
p1732
aVincident
p1733
aVdavejmatthews
p1734
aVinterface
p1735
aVwebdd
p1736
aVpagan
p1737
aVshampoos
p1738
aVlast
p1739
aVthou
p1740
aVbarely
p1741
aVconnection
p1742
aVretarded
p1743
aVpdf
p1744
aVatekinzz
p1745
aVwhole
p1746
aVlanyard
p1747
aVpatty
p1748
aVload
p1749
aVelectrician
p1750
aVdrunk
p1751
aVloan
p1752
aVsmashing
p1753
aVstreetanchor
p1754
aVcoincidence
p1755
aVolly
p1756
aVgagalila
p1757
aVagents
p1758
aVchurch
p1759
aVfaraday
p1760
aVsammy
p1761
aVpapercakes
p1762
aVtonya
p1763
aVpublishing
p1764
aVirritating
p1765
aVanwser
p1766
aVsuburbs
p1767
aVoptions
p1768
aVfreeview
p1769
aVfridaynightboys
p1770
aVstoopid
p1771
aVlvatt
p1772
aVraced
p1773
aVsamples
p1774
aVnrl
p1775
aVfire
p1776
aVmarybethune
p1777
aVabruzzo
p1778
aVbitchy
p1779
aVfund
p1780
aVnisland
p1781
aVraces
p1782
aVawake
p1783
aVreallamarodom
p1784
aVeduc
p1785
aVmlb
p1786
aVhandling
p1787
aVbelly
p1788
aVtontenn
p1789
aVmlm
p1790
aVsesame
p1791
aVforgetting
p1792
aVouchie
p1793
aVerror
p1794
aVkissing
p1795
aVproperly
p1796
aVcages
p1797
aVswim
p1798
aVhoping
p1799
aVvon
p1800
aVmoto
p1801
aVvou
p1802
aVvcluxe
p1803
aVisihac
p1804
aVtriple
p1805
aVbeautifully
p1806
aVmadisonmitchell
p1807
aVsaddening
p1808
aVfunny
p1809
aVsince
p1810
aVfetching
p1811
aVninomcfly
p1812
aVmailing
p1813
aVjustabystander
p1814
aVhahahh
p1815
aVfunnn
p1816
aVlaylakayleigh
p1817
aVgaiachik
p1818
aVcappucino
p1819
aVflooded
p1820
aVmopeey
p1821
aVthecoolestout
p1822
aVvirginia
p1823
aVviewing
p1824
aVwalmart
p1825
aVmargaretcho
p1826
aVgonna
p1827
aVnickname
p1828
aVinfamous
p1829
aVcanned
p1830
aVtil
p1831
aVpicky
p1832
aVkelli
p1833
aVtomorrw
p1834
aVjalan
p1835
aVflippin
p1836
aVkelly
p1837
aVsims
p1838
aVmaaaaaan
p1839
aVtheee
p1840
aVpauloreyes
p1841
aVhercules
p1842
aVkaya
p1843
aVmichaelalacey
p1844
aVsidebar
p1845
aVmusicmonday
p1846
aVsandal
p1847
aVsurprises
p1848
aValoha
p1849
aVsignals
p1850
aVrangers
p1851
aVparents
p1852
aVlocation
p1853
aVsydney
p1854
aVcourtney
p1855
aVmootsie
p1856
aVmami
p1857
aVmarkygk
p1858
aVcharbrum
p1859
aVaustralia
p1860
aVemergency
p1861
aVxenex
p1862
aVcoupla
p1863
aVtweaks
p1864
aVsuffering
p1865
aVcroped
p1866
aVnotts
p1867
aVhardluck
p1868
aVd
aVspine
p1869
aVsmuttness
p1870
aVchorus
p1871
aVcommunications
p1872
aVcontinue
p1873
aVivaa
p1874
aVstylish
p1875
aVsuppliers
p1876
aVbuddies
p1877
aVpartying
p1878
aVspring
p1879
aVsighh
p1880
aVunloved
p1881
aVstarship
p1882
aVsighs
p1883
aVxong
p1884
aVwillfrancis
p1885
aVpalm
p1886
aVpala
p1887
aVcurious
p1888
aVvaletomars
p1889
aVshitloads
p1890
aVmummy
p1891
aVnovelty
p1892
aVthrilled
p1893
aVzanasolo
p1894
aVdating
p1895
aVbc
p1896
aVperformed
p1897
aVchrismnix
p1898
aVbh
p1899
aVagreement
p1900
aVbj
p1901
aVbw
p1902
aVnowhere
p1903
aVbs
p1904
aVwildlife
p1905
aVzip
p1906
aVanything
p1907
aVnetflix
p1908
aVdeserves
p1909
aVchi
p1910
aVmillie
p1911
aVrepair
p1912
aVgarbage
p1913
aVhometown
p1914
aVmeaghanellenxo
p1915
aVbeverleyknight
p1916
aVchirping
p1917
aVphysical
p1918
aVtlcox
p1919
aVspan
p1920
aVarcade
p1921
aVsneaky
p1922
aVjonathanchard
p1923
aVgrave
p1924
aVjacvanek
p1925
aVaddicting
p1926
aVsuit
p1927
aVspat
p1928
aVinches
p1929
aVjessikasays
p1930
aVrelaxed
p1931
aVtally
p1932
aVpastor
p1933
aVdarlenevictoria
p1934
aVdiaperdiaries
p1935
aVlink
p1936
aVgiagiagia
p1937
aVline
p1938
aVrelaxes
p1939
aVposted
p1940
aVfades
p1941
aVuu
p1942
aVut
p1943
aVbetis
p1944
aVtuesdaytweetup
p1945
aVus
p1946
aVur
p1947
aVum
p1948
aVmorocco
p1949
aVmaynaseric
p1950
aVuh
p1951
aVmushy
p1952
aVtwitition
p1953
aVuf
p1954
aVtons
p1955
aVleonkay
p1956
aVchai
p1957
aVtyrese
p1958
aVaulia
p1959
aVchar
p1960
aVchap
p1961
aVcanteen
p1962
aVchay
p1963
aVphantom
p1964
aVcodes
p1965
aVchrisgedrim
p1966
aVmadbello
p1967
aVkissthebassist
p1968
aVscrape
p1969
aVpreventing
p1970
aVreasc
p1971
aVrevision
p1972
aVraped
p1973
aVsided
p1974
aVaussies
p1975
aVoccurred
p1976
aVmeals
p1977
aVago
p1978
aVhells
p1979
aVtexted
p1980
aVstressin
p1981
aViamwhoever
p1982
aVlogical
p1983
aVhella
p1984
aVbamaloo
p1985
aVenrolled
p1986
aVoracle
p1987
aVhello
p1988
aVnoooooooo
p1989
aVessay
p1990
aVscratch
p1991
aVaussie
p1992
aVresults
p1993
aVexisting
p1994
aVtotes
p1995
aVfreakin
p1996
aVgossip
p1997
aVflashback
p1998
aVdazlumsdon
p1999
aVyoung
p2000
aVsend
p2001
aVmigs
p2002
aVdislike
p2003
aVresources
p2004
aVuploaded
p2005
aVstocked
p2006
aVgarden
p2007
aVcontinues
p2008
aVadamblacklin
p2009
aVmixing
p2010
aVcategories
p2011
aVtri
p2012
aVmagic
p2013
aVkeza
p2014
aVmarry
p2015
aVgettin
p2016
aVtry
p2017
aVsimpleplan
p2018
aVrace
p2019
aVlogistics
p2020
aVowwww
p2021
aVlushlady
p2022
aVodw
p2023
aVsneaking
p2024
aVsammybaby
p2025
aVvideo
p2026
aVdotastronomy
p2027
aVtrackball
p2028
aVyayyy
p2029
aVodd
p2030
aVleakage
p2031
aVjeffkang
p2032
aVgraduating
p2033
aVspbpuk
p2034
aVsweats
p2035
aVhearingdogs
p2036
aVgodddd
p2037
aVshivers
p2038
aVtraveltuesday
p2039
aVtaylorswift
p2040
aVrichmond
p2041
aVshaundiviney
p2042
aVbird
p2043
aVlea
p2044
aVled
p2045
aVlee
p2046
aVleg
p2047
aVleh
p2048
aVjammies
p2049
aVtybo
p2050
aVlen
p2051
aVleo
p2052
aVcazp
p2053
aVlet
p2054
aVubuntu
p2055
aVkrist
p2056
aVessendon
p2057
aVgreat
p2058
aVengage
p2059
aVrdp
p2060
aVbobbyllew
p2061
aVreceive
p2062
aVinvolved
p2063
aVcasino
p2064
aVtooting
p2065
aVfond
p2066
aVrdg
p2067
aVddlovato
p2068
aVpopcorn
p2069
aVopinion
p2070
aVmaker
p2071
aVinvolves
p2072
aVthats
p2073
aVbinge
p2074
aVpeeyah
p2075
aVbelajar
p2076
aVmusclenerd
p2077
aVkaddyi
p2078
aVterrified
p2079
aVmariners
p2080
aVdwsr
p2081
aVloca
p2082
aVoishiieats
p2083
aVconfidence
p2084
aVsadder
p2085
aVscorchio
p2086
aVcertificate
p2087
aVchocolates
p2088
aVclicker
p2089
aVduplicate
p2090
aVbaba
p2091
aVgooooooood
p2092
aVpff
p2093
aVbabi
p2094
aVkatelyn
p2095
aVstephenie
p2096
aVbabs
p2097
aVrubbish
p2098
aVok
p2099
aVcharity
p2100
aVcustomer
p2101
aVtorn
p2102
aVballs
p2103
aVpout
p2104
aVathlete
p2105
aVclients
p2106
aVmattownsyoface
p2107
aVoxcom
p2108
aVslid
p2109
aVstreamed
p2110
aVjermaine
p2111
aVquesadillas
p2112
aVpurposes
p2113
aVob
p2114
aVcuisine
p2115
aVtwitpic
p2116
aVanimax
p2117
aVtheblondetheory
p2118
aVrhubarb
p2119
aVtorino
p2120
aVespen
p2121
aVreinstated
p2122
aVhormones
p2123
aVsucess
p2124
aVoz
p2125
aVawesomest
p2126
aVwallpaper
p2127
aVpaleo
p2128
aVtied
p2129
aVottimisvico
p2130
aViplayer
p2131
aVappetizer
p2132
aVmelissamaples
p2133
aVnps
p2134
aVvivinyvil
p2135
aVrealized
p2136
aVrevising
p2137
aVclarkson
p2138
aVlittlebigplanet
p2139
aVlondicreations
p2140
aVneilcurry
p2141
aVallot
p2142
aVclassy
p2143
aVskyfire
p2144
aVclasss
p2145
aVclarissa
p2146
aVhouston
p2147
aValiistack
p2148
aVproducer
p2149
aVdindle
p2150
aVcarlsonator
p2151
aVmove
p2152
aVdming
p2153
aVmutt
p2154
aVperfect
p2155
aVdelay
p2156
aVwolfcat
p2157
aVjodi
p2158
aVtraceymmm
p2159
aVlamp
p2160
aVmeantime
p2161
aVhobbs
p2162
aVdegrees
p2163
aVjody
p2164
aVnada
p2165
aVbat
p2166
aVship
p2167
aVdock
p2168
aVfreaky
p2169
aVwinonawiefel
p2170
aVrifftrax
p2171
aVcage
p2172
aVnormanj
p2173
aVautistic
p2174
aVbette
p2175
aVbetta
p2176
aVanimefan
p2177
aVsniffing
p2178
aVmerge
p2179
aViblduafollowing
p2180
aVbetty
p2181
aVgabbydario
p2182
aVglasses
p2183
aVhathaway
p2184
aVtents
p2185
aVsociety
p2186
aVbooks
p2187
aVtroyjh
p2188
aVsion
p2189
aVstephenfry
p2190
aVshannon
p2191
aVheyy
p2192
aVmakinherownway
p2193
aVcreateblog
p2194
aVnutrisystem
p2195
aVhilarious
p2196
aVlimyh
p2197
aVcandicotton
p2198
aVczar
p2199
aVshut
p2200
aVperish
p2201
aVfrak
p2202
aVgodly
p2203
aVgreedy
p2204
aVshud
p2205
aVsurely
p2206
aVlvtt
p2207
aVtempt
p2208
aVcraving
p2209
aVscary
p2210
aVuplifting
p2211
aVwillcritchlow
p2212
aVplastichands
p2213
aVspill
p2214
aVcould
p2215
aVdavid
p2216
aVchilly
p2217
aVmisssss
p2218
aVpigs
p2219
aVfrens
p2220
aVscare
p2221
aVrespond
p2222
aVcoachbear
p2223
aVelyse
p2224
aVraceforlifesponsorme
p2225
aVscene
p2226
aVowned
p2227
aVmrmackenzie
p2228
aVstepcloser
p2229
aVowner
p2230
aVwhiteystrife
p2231
aVblows
p2232
aVsharon
p2233
aVpugmarks
p2234
aVbummin
p2235
aVchloestack
p2236
aVtraveller
p2237
aVsystem
p2238
aVschnitzel
p2239
aVsergeant
p2240
aVahhahah
p2241
aVlumea
p2242
aVbehaved
p2243
aVpainful
p2244
aVlaters
p2245
aVgummy
p2246
aVtrackle
p2247
aVstomach
p2248
aVdepressing
p2249
aVfromthestars
p2250
aVgummi
p2251
aVhavee
p2252
aVhaven
p2253
aVdbdjvz
p2254
aVfatboy
p2255
aVsteel
p2256
aVwahhh
p2257
aVsweetpea
p2258
aVwarfare
p2259
aVjenson
p2260
aVoth
p2261
aVlisteners
p2262
aVsamanthablews
p2263
aVpoehler
p2264
aVbooooooo
p2265
aVfalse
p2266
aVicha
p2267
aVtwittering
p2268
aVshittest
p2269
aVmuir
p2270
aVspelled
p2271
aVtonight
p2272
aVjennamadison
p2273
aVblockbuster
p2274
aVcecil
p2275
aVviewed
p2276
aVeryn
p2277
aVdanasdirt
p2278
aVstudying
p2279
aVprobly
p2280
aVlinds
p2281
aVreloaded
p2282
aVwaffles
p2283
aVebonistephae
p2284
aVlindo
p2285
aVchibi
p2286
aVkorean
p2287
aVsoap
p2288
aVrealizes
p2289
aVregard
p2290
aVlmaooo
p2291
aVvisa
p2292
aVamongst
p2293
aVsegment
p2294
aVsweeping
p2295
aVborde
p2296
aVascot
p2297
aVzelciia
p2298
aVckp
p2299
aVbrew
p2300
aVwounded
p2301
aVpainting
p2302
aVfact
p2303
aVbiked
p2304
aVjoannagoff
p2305
aValbynomonk
p2306
aVbring
p2307
aVbikes
p2308
aVlloyd
p2309
aVrouge
p2310
aVrough
p2311
aVstorycorey
p2312
aVdecade
p2313
aVjay
p2314
aVjaw
p2315
aVshanealexander
p2316
aVbuttons
p2317
aVjam
p2318
aVjai
p2319
aVhope
p2320
aVtimesheets
p2321
aVinsight
p2322
aVsweetie
p2323
aVabba
p2324
aVmeans
p2325
aVfamiliar
p2326
aVcranky
p2327
aVmeany
p2328
aVwiggle
p2329
aVwebcast
p2330
aVsinus
p2331
aVabby
p2332
aVluckk
p2333
aVspammers
p2334
aVgrrrr
p2335
aVkatyperry
p2336
aVh
aVundergrad
p2337
aVlala
p2338
aVtaxes
p2339
aVreid
p2340
aVfuzzball
p2341
aVgbs
p2342
aVohio
p2343
aVguessing
p2344
aVbtw
p2345
aVtemporarily
p2346
aVspamming
p2347
aVheartburn
p2348
aVzurairi
p2349
aVtravis
p2350
aVbtc
p2351
aVtheprophetblog
p2352
aVstickam
p2353
aVtextiles
p2354
aVlavigne
p2355
aVsuperhero
p2356
aVwealth
p2357
aVneilhumphreys
p2358
aVposse
p2359
aVanthonymcmurray
p2360
aVnominees
p2361
aVyoull
p2362
aVkeynote
p2363
aVidentica
p2364
aVbuttt
p2365
aVuellet
p2366
aVihate
p2367
aVchapped
p2368
aVstaring
p2369
aVhammy
p2370
aVfigured
p2371
aVinvited
p2372
aVdrug
p2373
aVfigures
p2374
aVsmilin
p2375
aVpuff
p2376
aVutube
p2377
aVschroedinger
p2378
aVbongodibosh
p2379
aVgooood
p2380
aVco
p2381
aVfraybaby
p2382
aVarrgh
p2383
aVgooooo
p2384
aVcb
p2385
aVca
p2386
aVcd
p2387
aVkayballard
p2388
aVfaitheee
p2389
aVcq
p2390
aVoakland
p2391
aVmigrane
p2392
aVct
p2393
aVdrank
p2394
aVhottest
p2395
aVwaste
p2396
aVserenityworks
p2397
aVoneluvgurl
p2398
aVurghhhhh
p2399
aVmittopotahis
p2400
aVneighbour
p2401
aVspain
p2402
aVblipfm
p2403
aVtheyve
p2404
aVrbs
p2405
aVpodcasts
p2406
aVgrinning
p2407
aVmemorizing
p2408
aVhahaha
p2409
aVbathtub
p2410
aVgroin
p2411
aVarchie
p2412
aVva
p2413
aVvb
p2414
aVve
p2415
aVvg
p2416
aVvh
p2417
aVvi
p2418
aVvk
p2419
aVsurprisingly
p2420
aVuggg
p2421
aVadventures
p2422
aVuggs
p2423
aVfelice
p2424
aVdaa
p2425
aVtattoo
p2426
aVdenial
p2427
aVtupac
p2428
aVromance
p2429
aVdigging
p2430
aVandroid
p2431
aVuxlondon
p2432
aVsadd
p2433
aVsade
p2434
aVbali
p2435
aVarsenalsarah
p2436
aVsouljaboytellem
p2437
aVcoffe
p2438
aVphd
p2439
aVthks
p2440
aVphx
p2441
aVbreck
p2442
aVdust
p2443
aVcatsss
p2444
aVexpand
p2445
aVprotecting
p2446
aVcolour
p2447
aVblueparrot
p2448
aVdougie
p2449
aVaudio
p2450
aVdrawing
p2451
aVnewest
p2452
aVbananas
p2453
aVtrust
p2454
aVmomento
p2455
aVpaul
p2456
aVglue
p2457
aVloev
p2458
aVgenerous
p2459
aVweg
p2460
aVpolisheddivas
p2461
aVwer
p2462
aVwhyinthehell
p2463
aVwet
p2464
aVsiriuslyheather
p2465
aVgoingg
p2466
aVnvr
p2467
aVgovernment
p2468
aVchecking
p2469
aVepiphanygirl
p2470
aVhaul
p2471
aVcedar
p2472
aVhehehehe
p2473
aVheight
p2474
aVpier
p2475
aVpies
p2476
aVemma
p2477
aVcrisr
p2478
aVcriss
p2479
aVchairs
p2480
aVunprotected
p2481
aVlemming
p2482
aVgarage
p2483
aVillutic
p2484
aVbecome
p2485
aVemmy
p2486
aVreplacement
p2487
aVgaining
p2488
aVmmhm
p2489
aVkjbrown
p2490
aVsneezed
p2491
aVmarmite
p2492
aVdaylight
p2493
aVdownside
p2494
aVcandicunningham
p2495
aVflush
p2496
aVyayayayay
p2497
aVthier
p2498
aVhighpriestess
p2499
aVkitties
p2500
aVdisbelief
p2501
aVliterally
p2502
aVbreakout
p2503
aVpassion
p2504
aVivybean
p2505
aVblowing
p2506
aVseeee
p2507
aVpeep
p2508
aVmcrfash
p2509
aVsingin
p2510
aVsheamus
p2511
aVimaginary
p2512
aVhiding
p2513
aVgained
p2514
aVplastic
p2515
aVsister
p2516
aVkevin
p2517
aVkristenkreuk
p2518
aVbotherd
p2519
aVjoshfittell
p2520
aVhilaryannduff
p2521
aVcrazydjbazarro
p2522
aVhwz
p2523
aVrevise
p2524
aVswimming
p2525
aVcoverage
p2526
aVetherb
p2527
aVpigging
p2528
aVcatherine
p2529
aVaxos
p2530
aVscreamed
p2531
aVexacerbated
p2532
aVlung
p2533
aVhalloooo
p2534
aVjoyce
p2535
aVwahliaodotcom
p2536
aVwickdweirdwitch
p2537
aVmere
p2538
aVjojofrenchy
p2539
aVwildbluemchen
p2540
aVbrownies
p2541
aVfifthsummit
p2542
aVannabel
p2543
aVspots
p2544
aVmarshmallow
p2545
aVannette
p2546
aVgut
p2547
aVnaturally
p2548
aVfunction
p2549
aVagian
p2550
aVfindlay
p2551
aVcosmopolitan
p2552
aVbrumm
p2553
aVgrats
p2554
aVughhh
p2555
aVdelivers
p2556
aVkerryinholland
p2557
aVchained
p2558
aVsmooth
p2559
aVexcitement
p2560
aVgreens
p2561
aVkirstiealley
p2562
aVnominations
p2563
aVsavagestar
p2564
aVins
p2565
aVino
p2566
aVfinished
p2567
aVinf
p2568
aVing
p2569
aVina
p2570
aVjesse
p2571
aVplanting
p2572
aVcompared
p2573
aVmushroom
p2574
aVchubb
p2575
aVsexual
p2576
aVmisha
p2577
aVsharif
p2578
aVdiggi
p2579
aVdznr
p2580
aVhappiest
p2581
aVdetails
p2582
aVrepeat
p2583
aVmonday
p2584
aVmcc
p2585
aVkerrang
p2586
aVchance
p2587
aVnetgear
p2588
aVwrenching
p2589
aVhenkuyinepu
p2590
aVbadass
p2591
aVstylists
p2592
aVinspiration
p2593
aVsearches
p2594
aVgooooood
p2595
aVeod
p2596
aVlasted
p2597
aVmacchiato
p2598
aVsearched
p2599
aVinning
p2600
aVsuicidal
p2601
aVdisq
p2602
aVciao
p2603
aVmagnetic
p2604
aVsaves
p2605
aVafwife
p2606
aVblisters
p2607
aVbrianwelburn
p2608
aVcontroversial
p2609
aVcrete
p2610
aVoldest
p2611
aVsaved
p2612
aVstinks
p2613
aVvotes
p2614
aVporno
p2615
aVmegamac
p2616
aVstinky
p2617
aVcarpel
p2618
aVmmmmmmm
p2619
aVrei
p2620
aVwalks
p2621
aVvoted
p2622
aVhhehehe
p2623
aVergh
p2624
aVworth
p2625
aVblistering
p2626
aVebassman
p2627
aVjacob
p2628
aVthass
p2629
aVdaydream
p2630
aVmirandabuzz
p2631
aVupload
p2632
aVcma
p2633
aVhumidity
p2634
aVdavidlian
p2635
aVburke
p2636
aVreinvent
p2637
aVtriumph
p2638
aVmaximumswearing
p2639
aVchew
p2640
aVmidsummer
p2641
aVchex
p2642
aVbrill
p2643
aVchickenfoot
p2644
aValt
p2645
aVanddd
p2646
aVdefries
p2647
aVbipolar
p2648
aVmelted
p2649
aVsuppose
p2650
aVpetra
p2651
aVcounters
p2652
aVcrunch
p2653
aVshutup
p2654
aVinterns
p2655
aVwrapping
p2656
aVpluto
p2657
aVbangkok
p2658
aVdjblacknmild
p2659
aVprotection
p2660
aVcaitykauffman
p2661
aVsmartwater
p2662
aVcelebration
p2663
aVkudos
p2664
aVdaughter
p2665
aVnuffnang
p2666
aVstudy
p2667
aVjoeypage
p2668
aVadopt
p2669
aVaki
p2670
aVgoddamnit
p2671
aVsmoke
p2672
aVstressed
p2673
aVlonesome
p2674
aVaka
p2675
aVlovemeagan
p2676
aVbrr
p2677
aVkelanjo
p2678
aVhighly
p2679
aVmcawilliams
p2680
aVfranz
p2681
aVglance
p2682
aVbra
p2683
aVtweeties
p2684
aVdevastation
p2685
aVplow
p2686
aVindians
p2687
aVindiana
p2688
aVbrittkneee
p2689
aVblueberry
p2690
aVabusing
p2691
aVhaha
p2692
aVaward
p2693
aVyard
p2694
aVboobies
p2695
aVtnt
p2696
aVbunnies
p2697
aVword
p2698
aVerr
p2699
aVers
p2700
aVarbys
p2701
aVwork
p2702
aVtnx
p2703
aVworn
p2704
aVcuddly
p2705
aVcuddle
p2706
aVtna
p2707
aVblooming
p2708
aVsuewaters
p2709
aVerm
p2710
aVcrackers
p2711
aVcans
p2712
aVgoood
p2713
aVbergenlarsen
p2714
aVindia
p2715
aVheartless
p2716
aVaaaa
p2717
aVaaah
p2718
aVic
p2719
aVtotaled
p2720
aVyaaaay
p2721
aVmorow
p2722
aVstefii
p2723
aVrecovery
p2724
aVprovide
p2725
aVegyptian
p2726
aVhitman
p2727
aVinterview
p2728
aVpizza
p2729
aVlan
p2730
aVfever
p2731
aVlah
p2732
aVdoable
p2733
aVbday
p2734
aVlichfield
p2735
aVlag
p2736
aVnawww
p2737
aVlab
p2738
aVcustoms
p2739
aVhollister
p2740
aVsasha
p2741
aVmeaningful
p2742
aVshaolintiger
p2743
aVappreciate
p2744
aVgreen
p2745
aVworst
p2746
aVatrocity
p2747
aVmileyfashion
p2748
aVorder
p2749
aVoffice
p2750
aVzee
p2751
aVmuffin
p2752
aVtricked
p2753
aVyoungq
p2754
aVawful
p2755
aVpascal
p2756
aVnsfw
p2757
aVjapan
p2758
aVtennesse
p2759
aVlionsrugbyteam
p2760
aVsomewhere
p2761
aVmasterchef
p2762
aVdenver
p2763
aVgroezrock
p2764
aVproduction
p2765
aVacupuncture
p2766
aVbookstore
p2767
aVluved
p2768
aVcoffee
p2769
aVwokeh
p2770
aVaffected
p2771
aVwoken
p2772
aVsafe
p2773
aVcollide
p2774
aVcabaal
p2775
aVtouring
p2776
aVbreak
p2777
aVemigrated
p2778
aVroommate
p2779
aVmgmt
p2780
aVkazcita
p2781
aVpjs
p2782
aVheyyyy
p2783
aVemilyyoung
p2784
aVrocky
p2785
aVroutines
p2786
aVl
aVrocks
p2787
aVstimulus
p2788
aVtomwellingtweet
p2789
aVreasonable
p2790
aVcribfest
p2791
aVlifted
p2792
aVyaudah
p2793
aVlogs
p2794
aVhilson
p2795
aVflock
p2796
aVtrench
p2797
aVshootingstar
p2798
aVlozzyjay
p2799
aVcaveman
p2800
aVhooked
p2801
aVforty
p2802
aVvessels
p2803
aVstrangers
p2804
aVforte
p2805
aVanca
p2806
aVshadyadie
p2807
aVmedicine
p2808
aVsmoshanthony
p2809
aVforth
p2810
aVamericanwomannn
p2811
aVgirlsgonechild
p2812
aVtcot
p2813
aVvixen
p2814
aVqualifications
p2815
aVpuddingface
p2816
aVmourning
p2817
aVnth
p2818
aVappointments
p2819
aVtechno
p2820
aVamadeus
p2821
aVlollipop
p2822
aVsoundcloud
p2823
aVmvp
p2824
aVange
p2825
aVdammit
p2826
aVrecovering
p2827
aVcreated
p2828
aVraisin
p2829
aVcreates
p2830
aVrenew
p2831
aVmvc
p2832
aVcaprica
p2833
aVttaasshhaa
p2834
aVorganize
p2835
aVchamps
p2836
aVcutiepie
p2837
aVfuckers
p2838
aVmeshel
p2839
aVnadzmc
p2840
aVgriff
p2841
aVchopper
p2842
aVcomic
p2843
aVelectronic
p2844
aVdjcapone
p2845
aVshadfar
p2846
aVrejects
p2847
aVdumbass
p2848
aVarielle
p2849
aVmccmarianne
p2850
aVdogs
p2851
aVcoollike
p2852
aVkiwi
p2853
aVtubilino
p2854
aValonso
p2855
aVbertemu
p2856
aVfiggybean
p2857
aVwaster
p2858
aVscruffypanther
p2859
aVnahh
p2860
aVwasted
p2861
aVtwitterific
p2862
aVlhasapso
p2863
aVtoronto
p2864
aVmercy
p2865
aVtiara
p2866
aVktv
p2867
aVpresto
p2868
aVebay
p2869
aVmerci
p2870
aVpipedream
p2871
aVswatkatt
p2872
aViron
p2873
aVsexxyy
p2874
aVfoxythang
p2875
aVnicloveshabs
p2876
aVgiraffes
p2877
aVchabcoyiuto
p2878
aVdildo
p2879
aVtarkan
p2880
aVcontents
p2881
aVforced
p2882
aVscotttp
p2883
aVtes
p2884
aVgenuine
p2885
aVwiden
p2886
aVsubjects
p2887
aVforces
p2888
aVcurfew
p2889
aVditut
p2890
aVconducive
p2891
aVmatsujun
p2892
aVweeding
p2893
aVmanuelafritschi
p2894
aVingridb
p2895
aVmaiden
p2896
aVebook
p2897
aVanatomy
p2898
aVinvolving
p2899
aVgermany
p2900
aVscripts
p2901
aVexercises
p2902
aVmaddi
p2903
aVduckling
p2904
aValumni
p2905
aVroommates
p2906
aVbracket
p2907
aVvoting
p2908
aVspringleap
p2909
aVstephens
p2910
aVyeh
p2911
aVjoong
p2912
aVsociomat
p2913
aVanniversary
p2914
aVsubtle
p2915
aVsarahsaner
p2916
aVlense
p2917
aVenjoyed
p2918
aVletterman
p2919
aVpainfully
p2920
aVscifigirl
p2921
aVimplementation
p2922
aVkinky
p2923
aVuyaerdna
p2924
aVhrs
p2925
aVtomraftery
p2926
aVdeepest
p2927
aVsporting
p2928
aVojtlv
p2929
aVdn
p2930
aVdl
p2931
aVdm
p2932
aVdj
p2933
aVdi
p2934
aVde
p2935
aVdb
p2936
aVdc
p2937
aVpreferred
p2938
aVfrowning
p2939
aVbiancajwood
p2940
aVdowntime
p2941
aVdw
p2942
aVnasty
p2943
aVdr
p2944
aVds
p2945
aVdp
p2946
aVdq
p2947
aVemo
p2948
aVpixiesongs
p2949
aVsuz
p2950
aVweboword
p2951
aVems
p2952
aVbuat
p2953
aVwannabe
p2954
aVsteal
p2955
aVsteam
p2956
aVbesties
p2957
aVmiserably
p2958
aVdepends
p2959
aVtorrents
p2960
aVmiserable
p2961
aVxitara
p2962
aVdraws
p2963
aVaway
p2964
aVgentleman
p2965
aVthemattevers
p2966
aVunable
p2967
aVimpending
p2968
aVprops
p2969
aVfarley
p2970
aVsonisphere
p2971
aVwf
p2972
aVnambu
p2973
aVthrowdown
p2974
aVwa
p2975
aVwk
p2976
aVww
p2977
aVwp
p2978
aVconvertible
p2979
aVpackages
p2980
aVjunomagic
p2981
aVmanxmidge
p2982
aVcop
p2983
aVcos
p2984
aVcor
p2985
aVhan
p2986
aVmoisturiser
p2987
aVcoy
p2988
aVill
p2989
aVkimi
p2990
aVbrag
p2991
aVnatasja
p2992
aVilp
p2993
aVcom
p2994
aVcoo
p2995
aVtwitterverse
p2996
aVtough
p2997
aVmarkleo
p2998
aVgahhhh
p2999
aVleewaters
p3000
aVtony
p3001
aVoblivious
p3002
aVjays
p3003
aVheals
p3004
aVspeak
p3005
aVnickynocky
p3006
aVnoes
p3007
aVhahahaah
p3008
aVdozens
p3009
aVinnocent
p3010
aVrelaxing
p3011
aVbeastly
p3012
aVcatering
p3013
aVfest
p3014
aVloulou
p3015
aVcomfortable
p3016
aVapplied
p3017
aVremy
p3018
aVgooodmorning
p3019
aVcodewarden
p3020
aVcheatar
p3021
aVshume
p3022
aVaim
p3023
aVapplies
p3024
aVaid
p3025
aVsmugmug
p3026
aVproperty
p3027
aVallyeska
p3028
aVloooove
p3029
aVrandomfacts
p3030
aVdumped
p3031
aVgerrymoth
p3032
aVsting
p3033
aVdizzy
p3034
aVbrake
p3035
aVcone
p3036
aVconf
p3037
aVmwclarkson
p3038
aVtimemachine
p3039
aVconfirmed
p3040
aVplip
p3041
aVperform
p3042
aVapparently
p3043
aVtrashing
p3044
aVmsjenniee
p3045
aVjerry
p3046
aVsakura
p3047
aVbunny
p3048
aVwheel
p3049
aVindependent
p3050
aVhana
p3051
aVnia
p3052
aVrain
p3053
aVhand
p3054
aVnorwegian
p3055
aVnevermind
p3056
aVproducers
p3057
aVbraunschweig
p3058
aVanimations
p3059
aVjaisaganir
p3060
aVnip
p3061
aVbabysittin
p3062
aVrainnwilson
p3063
aVcentred
p3064
aVprescribed
p3065
aVkept
p3066
aVthx
p3067
aVthw
p3068
aVthu
p3069
aVtht
p3070
aVeps
p3071
aVroomie
p3072
aVtho
p3073
aVthn
p3074
aVcontact
p3075
aVthi
p3076
aVmikeyway
p3077
aVerinmcfly
p3078
aVphotobooth
p3079
aVquoted
p3080
aVphoto
p3081
aVhahahha
p3082
aVkalo
p3083
aVquotes
p3084
aVspoiled
p3085
aVthanks
p3086
aVhills
p3087
aVchiefsanjay
p3088
aVcornell
p3089
aVphotographer
p3090
aVnooooooooo
p3091
aVjohnrozier
p3092
aVshout
p3093
aVspread
p3094
aVboard
p3095
aVrightherewithme
p3096
aVviking
p3097
aVboxee
p3098
aVrawrrr
p3099
aVitsanitabitch
p3100
aVverresnoirs
p3101
aVboxes
p3102
aVcapo
p3103
aVeverton
p3104
aVpartridge
p3105
aVaral
p3106
aVsongzyuuup
p3107
aVtiredd
p3108
aVcooler
p3109
aVunfortunatly
p3110
aVgrizzly
p3111
aVtheyre
p3112
aVdoctorfollowill
p3113
aVbpr
p3114
aVcourtneysit
p3115
aVnight
p3116
aVshawarma
p3117
aVsoar
p3118
aVoxid
p3119
aVhonored
p3120
aVdansiego
p3121
aVborn
p3122
aVneva
p3123
aVblockheads
p3124
aVrili
p3125
aVbenayers
p3126
aVradha
p3127
aVphenomenal
p3128
aVedibow
p3129
aVasking
p3130
aVlahore
p3131
aVadorable
p3132
aVpeek
p3133
aVcolumbus
p3134
aVzombies
p3135
aVtherealdemi
p3136
aVmarketing
p3137
aVpose
p3138
aVshogun
p3139
aVjayme
p3140
aVphew
p3141
aVpla
p3142
aVgraduated
p3143
aVflaws
p3144
aVpost
p3145
aVconfed
p3146
aVherpes
p3147
aVjeesh
p3148
aVdiner
p3149
aVmonths
p3150
aVxsparkage
p3151
aVohjennifer
p3152
aVdined
p3153
aVanime
p3154
aVcherish
p3155
aVronewmedia
p3156
aVwasting
p3157
aVcapped
p3158
aVallways
p3159
aVcreek
p3160
aVstrangely
p3161
aVwan
p3162
aVheheh
p3163
aVwai
p3164
aVwah
p3165
aVhehee
p3166
aVsally
p3167
aVsovereign
p3168
aVwaa
p3169
aVfight
p3170
aVway
p3171
aVaxelsrose
p3172
aVmacheist
p3173
aVwar
p3174
aVaimizubouken
p3175
aVsnowy
p3176
aVgjarnling
p3177
aVteehee
p3178
aVmikasounds
p3179
aVlivelaughsing
p3180
aVneedles
p3181
aVelderly
p3182
aVtrue
p3183
aVrachaelblogs
p3184
aVaghhhhh
p3185
aValexandrastack
p3186
aVwhyy
p3187
aVmaximum
p3188
aVplymouth
p3189
aValtoona
p3190
aVmtn
p3191
aVmto
p3192
aVmtb
p3193
aVemotional
p3194
aVmtg
p3195
aVgarcevisage
p3196
aVmails
p3197
aVmedication
p3198
aVhotter
p3199
aVmilano
p3200
aVreligiously
p3201
aVjoeaa
p3202
aVnetbal
p3203
aVface
p3204
aVarchive
p3205
aVnewlyweds
p3206
aVbaguette
p3207
aVdying
p3208
aVrealmattlucas
p3209
aVtopped
p3210
aVreality
p3211
aVinterested
p3212
aVtest
p3213
aVjono
p3214
aVjennifermf
p3215
aVbrothers
p3216
aVtruro
p3217
aVwelcome
p3218
aVconvincing
p3219
aVpolite
p3220
aVbelive
p3221
aVscores
p3222
aVfunerals
p3223
aVbrothas
p3224
aVbeda
p3225
aVinterval
p3226
aVmodules
p3227
aVantibiotics
p3228
aVtogether
p3229
aVchesneyh
p3230
aVsongz
p3231
aVgutting
p3232
aVbabelfish
p3233
aVsongs
p3234
aVjessicahenrie
p3235
aVconcept
p3236
aVvampires
p3237
aVcharitytuesday
p3238
aVarnett
p3239
aVgrateful
p3240
aVbattle
p3241
aVhannahs
p3242
aVmcgaha
p3243
aVlayers
p3244
aVcertainly
p3245
aVhurry
p3246
aVzone
p3247
aVgraph
p3248
aVerinzaerya
p3249
aVglad
p3250
aVrhythm
p3251
aVstrungoutwired
p3252
aVchipperbebe
p3253
aVbrown
p3254
aVprotective
p3255
aVblimey
p3256
aVdecking
p3257
aVhollyym
p3258
aVvegan
p3259
aVsunbathe
p3260
aVkitten
p3261
aVtrouble
p3262
aVlouiseodquier
p3263
aVgue
p3264
aVgud
p3265
aVturns
p3266
aVguh
p3267
aVchewiella
p3268
aVgum
p3269
aVp
aVsoooo
p3270
aVq
aVguitarr
p3271
aVfuuuck
p3272
aVguy
p3273
aVprairie
p3274
aVcyberia
p3275
aVrevolution
p3276
aVhtc
p3277
aVregret
p3278
aVbravo
p3279
aVhtm
p3280
aVbedroom
p3281
aVijustine
p3282
aVmigraines
p3283
aVcosy
p3284
aVlmbo
p3285
aVcurse
p3286
aVappear
p3287
aVassistance
p3288
aVshares
p3289
aVclahhh
p3290
aVshared
p3291
aVkgurrl
p3292
aVsupporting
p3293
aVelainerogers
p3294
aVexplosion
p3295
aVmackenziesmomma
p3296
aVchangs
p3297
aVroseshouse
p3298
aVbigbuck
p3299
aVinspiring
p3300
aVdownloaded
p3301
aVevitchka
p3302
aVwwefever
p3303
aVobsessing
p3304
aVgoldfish
p3305
aVhoops
p3306
aVteacher
p3307
aVchange
p3308
aVknowledge
p3309
aVsending
p3310
aVmartens
p3311
aVekk
p3312
aVflames
p3313
aVimpatiently
p3314
aVgenerator
p3315
aVvibrating
p3316
aVlakers
p3317
aVnixiepixel
p3318
aVusually
p3319
aVmontreal
p3320
aVextra
p3321
aVciee
p3322
aVstings
p3323
aVsuicides
p3324
aVcapplegate
p3325
aVchallenging
p3326
aVprove
p3327
aVretweeted
p3328
aVlivy
p3329
aVsinnersxjockers
p3330
aVclub
p3331
aVkamikazekitten
p3332
aVclue
p3333
aVnguyen
p3334
aVsevinnyne
p3335
aVcaz
p3336
aVgraphic
p3337
aVslogan
p3338
aVtinking
p3339
aVcar
p3340
aVgracesmith
p3341
aVcat
p3342
aVdecker
p3343
aVhardest
p3344
aVvarunshridhar
p3345
aVbradruggles
p3346
aVcam
p3347
aVcab
p3348
aVsleeep
p3349
aVcaf
p3350
aVlecraic
p3351
aVdedicated
p3352
aVnemo
p3353
aVgabba
p3354
aVchit
p3355
aVtopic
p3356
aVskydiving
p3357
aVfortunes
p3358
aVspn
p3359
aVmmmmmm
p3360
aVspb
p3361
aVclothing
p3362
aVamyaeroplane
p3363
aVhangova
p3364
aVproductive
p3365
aVlistened
p3366
aVmemorys
p3367
aVfortunately
p3368
aVgiveaways
p3369
aVfreezer
p3370
aVxosophietweets
p3371
aVwrite
p3372
aVgaping
p3373
aVhmph
p3374
aVproduct
p3375
aVsacrifice
p3376
aVamazingphoebe
p3377
aVgeorgedugdale
p3378
aValgeb
p3379
aVsazfob
p3380
aVonlydeshanda
p3381
aVmcflystargirl
p3382
aVgremlins
p3383
aVmusics
p3384
aVwhenever
p3385
aVbenny
p3386
aVflashdrive
p3387
aVreivanna
p3388
aVmehulved
p3389
aVbluerasp
p3390
aVghb
p3391
aVhahaaaa
p3392
aVkurt
p3393
aVchops
p3394
aVparamore
p3395
aVindeed
p3396
aVhaircut
p3397
aVended
p3398
aVcold
p3399
aVstill
p3400
aVbirds
p3401
aVearplugs
p3402
aVreacting
p3403
aVforms
p3404
aVshowered
p3405
aVnorway
p3406
aVmarshall
p3407
aVnom
p3408
aVnon
p3409
aVnoo
p3410
aVnoh
p3411
aVsnuggie
p3412
aVannounced
p3413
aVprunes
p3414
aVdiscuss
p3415
aVbarrow
p3416
aVwont
p3417
aVlaurendaymakeup
p3418
aVfumes
p3419
aVjames
p3420
aVdrop
p3421
aVjohnnybeane
p3422
aVkers
p3423
aVintrigued
p3424
aVstockholm
p3425
aVomgpop
p3426
aVdenmark
p3427
aVnighttt
p3428
aVyayay
p3429
aVel
p3430
aVdomain
p3431
aVen
p3432
aVyeaa
p3433
aVfired
p3434
aVek
p3435
aVaaaargh
p3436
aVwilmington
p3437
aVeg
p3438
aVea
p3439
aVwhyyyyyyyyy
p3440
aVroading
p3441
aVshouldnt
p3442
aVyeap
p3443
aVyear
p3444
aVeu
p3445
aVhappen
p3446
aVev
p3447
aVyeay
p3448
aVpills
p3449
aVes
p3450
aValbum
p3451
aVwhoohoo
p3452
aVfunnest
p3453
aVaccomplish
p3454
aVtwitterland
p3455
aVspace
p3456
aVhosed
p3457
aVreceiving
p3458
aVhappenings
p3459
aVaravindkumar
p3460
aVthong
p3461
aVdeemaah
p3462
aVargh
p3463
aVrly
p3464
aVeugh
p3465
aVtrickily
p3466
aVmeatrack
p3467
aVinevitable
p3468
aVcare
p3469
aVcouldn
p3470
aVdeck
p3471
aVcoulda
p3472
aVbritish
p3473
aVhonest
p3474
aVessie
p3475
aVinvitation
p3476
aVpromotion
p3477
aVjustjuanne
p3478
aVromania
p3479
aVflying
p3480
aVtoulouse
p3481
aVxo
p3482
aVxc
p3483
aVxa
p3484
aVzac
p3485
aVxd
p3486
aVxe
p3487
aVxz
p3488
aVxx
p3489
aVlouisebrig
p3490
aVpgreenbe
p3491
aVdirectly
p3492
aVxr
p3493
aVimpossible
p3494
aVring
p3495
aVdrove
p3496
aVtomorrow
p3497
aVsheer
p3498
aVsilent
p3499
aVcaught
p3500
aVcallout
p3501
aVcarson
p3502
aVtragic
p3503
aVjuga
p3504
aVababyblueeyes
p3505
aVemoltzen
p3506
aVakym
p3507
aVfriend
p3508
aVfrasier
p3509
aVshaneb
p3510
aVmostly
p3511
aVpearled
p3512
aVthay
p3513
aVcornwall
p3514
aVthankss
p3515
aVfluerrezsabelle
p3516
aVjane
p3517
aVfranti
p3518
aVtehran
p3519
aVthai
p3520
aVflowers
p3521
aVthao
p3522
aVappreciated
p3523
aVprofessionals
p3524
aVseuss
p3525
aVedition
p3526
aVsusan
p3527
aVoptimism
p3528
aVkiimm
p3529
aVadhyss
p3530
aVderekschwab
p3531
aVlunches
p3532
aVvindiekins
p3533
aVportsmouth
p3534
aVsurname
p3535
aVpremier
p3536
aVyoast
p3537
aVanger
p3538
aVbreakfast
p3539
aVneilfinn
p3540
aVwindsor
p3541
aValessandrod
p3542
aVterrific
p3543
aVhookah
p3544
aVsiesta
p3545
aVobjective
p3546
aVwch
p3547
aVredchinese
p3548
aVbitching
p3549
aVretrievergirl
p3550
aVbegin
p3551
aVfeckin
p3552
aVjornjansen
p3553
aVbenackerman
p3554
aVsoftsurrender
p3555
aVegg
p3556
aVtalents
p3557
aVtooth
p3558
aVferrari
p3559
aVmri
p3560
aVhollaglam
p3561
aVmre
p3562
aVfiling
p3563
aVgerman
p3564
aVhiddenplace
p3565
aVmashable
p3566
aVfletcher
p3567
aVinfos
p3568
aVground
p3569
aVaint
p3570
aVstained
p3571
aVsaints
p3572
aVdaay
p3573
aVwestlife
p3574
aVthompson
p3575
aVlocaltweeps
p3576
aVfirst
p3577
aVinnocentdrinks
p3578
aValerts
p3579
aVtruly
p3580
aVcannot
p3581
aVkiki
p3582
aVcelebrate
p3583
aVhomegrown
p3584
aVshwetharmaiya
p3585
aVseldom
p3586
aVlogan
p3587
aVsonar
p3588
aVgobullet
p3589
aVconcert
p3590
aVphysically
p3591
aVspore
p3592
aVasleep
p3593
aVtackling
p3594
aVjbeauty
p3595
aVjtv
p3596
aVgeeksthenewcool
p3597
aVmaterials
p3598
aVcolours
p3599
aVwhipped
p3600
aVmollieberlin
p3601
aVyumi
p3602
aVchelseaparadiso
p3603
aVsleepp
p3604
aVsoldering
p3605
aVhurts
p3606
aVarticle
p3607
aVhurty
p3608
aVjessemccartney
p3609
aVdionnac
p3610
aVtalented
p3611
aVizzie
p3612
aVmona
p3613
aVsleeps
p3614
aVballpark
p3615
aVoverrated
p3616
aVpray
p3617
aVpureem
p3618
aVhhaha
p3619
aVembedding
p3620
aVnyesh
p3621
aVwheels
p3622
aVtheellenshow
p3623
aVcomes
p3624
aVnearby
p3625
aVsnuggle
p3626
aVoverview
p3627
aVjeans
p3628
aVdispatch
p3629
aVstambo
p3630
aVlearning
p3631
aVpimples
p3632
aVkhanidea
p3633
aVcycling
p3634
aVrebuild
p3635
aVinformed
p3636
aVjess
p3637
aVdictator
p3638
aVexhaustion
p3639
aVsystems
p3640
aVhollaa
p3641
aVelvis
p3642
aVjshe
p3643
aVnikon
p3644
aVproven
p3645
aVfoggy
p3646
aVbetcha
p3647
aVdonniewahlberg
p3648
aVdeveloping
p3649
aVshockwave
p3650
aVcelts
p3651
aVpjhelliar
p3652
aVscum
p3653
aVcoolest
p3654
aVcigs
p3655
aVcanceled
p3656
aVyj
p3657
aVembrace
p3658
aVdefinitley
p3659
aVstickers
p3660
aVreznor
p3661
aVworry
p3662
aVdevelop
p3663
aVreeses
p3664
aVstupidlamb
p3665
aVmedia
p3666
aVfood
p3667
aVpoetic
p3668
aVcolinlewis
p3669
aVmanksniff
p3670
aVespecailly
p3671
aVcoworkers
p3672
aVbarcamp
p3673
aVextravaganza
p3674
aVnoble
p3675
aVfinish
p3676
aVvista
p3677
aVfruit
p3678
aVspunkransomed
p3679
aVmentally
p3680
aVsquatter
p3681
aVburrito
p3682
aVtraps
p3683
aVcharger
p3684
aVccs
p3685
aVbreezy
p3686
aVlaunched
p3687
aVfrontpage
p3688
aVheaps
p3689
aVchoreography
p3690
aVchased
p3691
aVexcel
p3692
aVdancers
p3693
aVshouts
p3694
aVfoot
p3695
aVch
p3696
aVmaternity
p3697
aVgreetings
p3698
aVtouch
p3699
aVdeath
p3700
aVplaytime
p3701
aVblatently
p3702
aVmicds
p3703
aVchoclate
p3704
aVhalftime
p3705
aVmomentum
p3706
aVreal
p3707
aVspectacular
p3708
aVbryan
p3709
aVread
p3710
aVpsd
p3711
aVearly
p3712
aVlistening
p3713
aVusing
p3714
aVpsp
p3715
aVlady
p3716
aVrear
p3717
aVfortune
p3718
aVpounds
p3719
aVpostcard
p3720
aVcollective
p3721
aVgreeting
p3722
aVmimbles
p3723
aVsundays
p3724
aVharan
p3725
aVwhatcha
p3726
aVcisco
p3727
aVmuhaha
p3728
aVewww
p3729
aVeddie
p3730
aVrehearsing
p3731
aVahhhhhh
p3732
aVmatthardybrand
p3733
aVpad
p3734
aVmodels
p3735
aVforks
p3736
aVwillie
p3737
aVunfornately
p3738
aVbusiness
p3739
aVtuition
p3740
aVhectic
p3741
aVfractured
p3742
aVexciting
p3743
aVthrow
p3744
aVchoc
p3745
aVsri
p3746
aVchoo
p3747
aVchop
p3748
aVsrs
p3749
aVmidnite
p3750
aVsry
p3751
aVbrrrr
p3752
aVtweetin
p3753
aVxevilovesmcflyx
p3754
aVdjiandi
p3755
aVoperator
p3756
aVyouu
p3757
aVzeinobia
p3758
aVnowadays
p3759
aVintervention
p3760
aVaree
p3761
aVcate
p3762
aVprepare
p3763
aVarea
p3764
aVaren
p3765
aVqualifying
p3766
aVloh
p3767
aVlol
p3768
aVlor
p3769
aVcats
p3770
aVlow
p3771
aVlou
p3772
aVduncn
p3773
aVspreee
p3774
aVallergic
p3775
aVcoolio
p3776
aVdrains
p3777
aVpitcher
p3778
aVdelayed
p3779
aVgunners
p3780
aVblackheartwhore
p3781
aVtrying
p3782
aVnemiso
p3783
aVhire
p3784
aVskewl
p3785
aVjumpnegative
p3786
aVcomics
p3787
aVbucket
p3788
aVsadness
p3789
aVjoshthomas
p3790
aVcarterorange
p3791
aVthoda
p3792
aVscanner
p3793
aVmoved
p3794
aVaftershocks
p3795
aVbawled
p3796
aVmoves
p3797
aVhospitals
p3798
aVtonightttttt
p3799
aVyoo
p3800
aVinnings
p3801
aVvalid
p3802
aVevenings
p3803
aVforcing
p3804
aVpoor
p3805
aVpolar
p3806
aVpoop
p3807
aVcaddy
p3808
aVpeas
p3809
aVboinc
p3810
aVflattened
p3811
aVsuited
p3812
aVaveragejoe
p3813
aVqueensland
p3814
aVtorches
p3815
aVxlilcutiepie
p3816
aVmomspective
p3817
aVpool
p3818
aVramsay
p3819
aVbuilding
p3820
aVbulk
p3821
aVwondered
p3822
aVtinypic
p3823
aVvines
p3824
aVkimbarweee
p3825
aVsleepydumpling
p3826
aVoverseas
p3827
aVtomorroww
p3828
aVnoooooooooo
p3829
aVpointing
p3830
aVgown
p3831
aVaddersop
p3832
aVsplitting
p3833
aVclarianne
p3834
aVmonth
p3835
aVroobies
p3836
aVceased
p3837
aVthoughtful
p3838
aVksosna
p3839
aVreligious
p3840
aVheidimontag
p3841
aVmonty
p3842
aVcarpet
p3843
aVdreadful
p3844
aVblueberries
p3845
aVauckland
p3846
aVwoopwoop
p3847
aVcommission
p3848
aVelias
p3849
aVdominated
p3850
aVvolunteer
p3851
aVomgaset
p3852
aVconfidential
p3853
aVhorror
p3854
aVmph
p3855
aVcoloured
p3856
aVlanna
p3857
aVmps
p3858
aVfossiloflife
p3859
aVparra
p3860
aVpressie
p3861
aVtonywade
p3862
aVrandomness
p3863
aVheaven
p3864
aVlouis
p3865
aVmanager
p3866
aVsemtech
p3867
aVstranded
p3868
aVstartin
p3869
aVboke
p3870
aVthrobbing
p3871
aVanak
p3872
aVblackout
p3873
aVsnowvsasphalt
p3874
aVass
p3875
aVcookies
p3876
aVfence
p3877
aVteenchoiceawards
p3878
aVgrothaug
p3879
aVorgasm
p3880
aVchuckle
p3881
aVdissertation
p3882
aVnana
p3883
aVscorching
p3884
aVlearner
p3885
aVdannygokey
p3886
aVapologized
p3887
aVedited
p3888
aViran
p3889
aVthisisrobthomas
p3890
aVtracks
p3891
aVsuicide
p3892
aVexcess
p3893
aVdepend
p3894
aVstrong
p3895
aVarena
p3896
aVavril
p3897
aVgingernyc
p3898
aVcolored
p3899
aVodannygirl
p3900
aVtysonritteraar
p3901
aVinspired
p3902
aVguyoseary
p3903
aVwhine
p3904
aVdrawers
p3905
aVamount
p3906
aVarent
p3907
aVrory
p3908
aVheartbroken
p3909
aVsunburned
p3910
aVshuffle
p3911
aVfamily
p3912
aVmickyfin
p3913
aVgrasha
p3914
aVdutchiedude
p3915
aVstuffing
p3916
aVkulturbrille
p3917
aVask
p3918
aVchunky
p3919
aVtoys
p3920
aVteach
p3921
aVsetanta
p3922
aVyummm
p3923
aVkhan
p3924
aVgarethslee
p3925
aVboudoirsextoys
p3926
aVunpleasant
p3927
aVtaken
p3928
aVbradjward
p3929
aVthrown
p3930
aVyuck
p3931
aVjaynehowarth
p3932
aVmainit
p3933
aVvm
p3934
aVvn
p3935
aVbroke
p3936
aVfanfiction
p3937
aVorganization
p3938
aVrohitsabu
p3939
aVnina
p3940
aVjessikaw
p3941
aVradityadika
p3942
aVnine
p3943
aVbudgets
p3944
aVning
p3945
aVakelaa
p3946
aVsmurf
p3947
aValyssa
p3948
aVnino
p3949
aVpusher
p3950
aVstinging
p3951
aVwallet
p3952
aVpushed
p3953
aVcows
p3954
aVphrase
p3955
aVmagenta
p3956
aVcaption
p3957
aVclarke
p3958
aVledger
p3959
aVstayed
p3960
aVcodsta
p3961
aVunlucky
p3962
aVmenus
p3963
aVprejudice
p3964
aVwigs
p3965
aVddrfanatic
p3966
aVgash
p3967
aVfr
p3968
aVtried
p3969
aVrudd
p3970
aVneopets
p3971
aVsneak
p3972
aVfa
p3973
aVfb
p3974
aVfk
p3975
aVfl
p3976
aVfm
p3977
aVfo
p3978
aVfallen
p3979
aVspectra
p3980
aVovernight
p3981
aVanytime
p3982
aVbashing
p3983
aVego
p3984
aVwildwood
p3985
aVdream
p3986
aVchicks
p3987
aVsood
p3988
aVsooo
p3989
aVauburn
p3990
aVffn
p3991
aVhell
p3992
aVheli
p3993
aVenvironmentally
p3994
aVrelaxin
p3995
aVpicard
p3996
aVactually
p3997
aVbrittney
p3998
aVtisyonk
p3999
aVgoodmorning
p4000
aVevening
p4001
aVcec
p4002
aVefusjon
p4003
aVhoorah
p4004
aVtranscribing
p4005
aVrachhiieee
p4006
aVyb
p4007
aVye
p4008
aVgreats
p4009
aVyy
p4010
aVvomit
p4011
aVcommodore
p4012
aVtszcheetah
p4013
aVadri
p4014
aVyp
p4015
aVyr
p4016
aVdesperately
p4017
aVfaire
p4018
aVkasey
p4019
aVfully
p4020
aVsucksss
p4021
aVbless
p4022
aVlaurennnn
p4023
aVcurlyminx
p4024
aVstopped
p4025
aVooops
p4026
aVobligated
p4027
aVtrailer
p4028
aVheavy
p4029
aVrestless
p4030
aVawesomeeee
p4031
aVjaws
p4032
aVdia
p4033
aVrachelferrucci
p4034
aVtafe
p4035
aVgoodnite
p4036
aVtodo
p4037
aVhooray
p4038
aVsurrounded
p4039
aVtemporary
p4040
aVsleepyhead
p4041
aVjolly
p4042
aVsafety
p4043
aVnewmoon
p4044
aVdunk
p4045
aVpun
p4046
aVasp
p4047
aVbass
p4048
aVmileyhq
p4049
aVpub
p4050
aVhouses
p4051
aVreason
p4052
aVbase
p4053
aVstraightened
p4054
aVmatthews
p4055
aVearliest
p4056
aVpup
p4057
aVbasi
p4058
aVdishwasher
p4059
aVlaunch
p4060
aVdrupal
p4061
aVpersists
p4062
aVterrible
p4063
aVterribly
p4064
aVamerican
p4065
aVreedoh
p4066
aVblush
p4067
aVknots
p4068
aVislandchic
p4069
aVarsenal
p4070
aVonto
p4071
aVcrissangel
p4072
aVmist
p4073
aVmiss
p4074
aVmaple
p4075
aVmeadow
p4076
aVhorse
p4077
aVbrandyandice
p4078
aVshelves
p4079
aVwonderful
p4080
aVshamed
p4081
aVmailchimp
p4082
aVwoohooo
p4083
aVnigeria
p4084
aVhundred
p4085
aVbanana
p4086
aVrawr
p4087
aVkeachlumanog
p4088
aVjadecraven
p4089
aVfuggin
p4090
aVjamie
p4091
aVtivo
p4092
aVstormclaudi
p4093
aVtranslation
p4094
aVlyraelson
p4095
aVdbags
p4096
aVkindly
p4097
aVstm
p4098
aVgrey
p4099
aVsqueaks
p4100
aVscandinavian
p4101
aVbride
p4102
aVgreg
p4103
aVnuthin
p4104
aVkindle
p4105
aVdtp
p4106
aVdtv
p4107
aVcharlotte
p4108
aViamyas
p4109
aVsyncing
p4110
aVurgently
p4111
aVelo
p4112
aVhollyingram
p4113
aVrandomly
p4114
aVjuice
p4115
aVselling
p4116
aVnovao
p4117
aVconcentration
p4118
aVphilly
p4119
aVthought
p4120
aVtyvm
p4121
aVlia
p4122
aVlib
p4123
aVlil
p4124
aVlim
p4125
aVflaming
p4126
aVscotland
p4127
aVlabour
p4128
aVlip
p4129
aVuseless
p4130
aVcavs
p4131
aVaired
p4132
aVkak
p4133
aVquote
p4134
aVkai
p4135
aVkan
p4136
aVkal
p4137
aVfreddie
p4138
aVeaten
p4139
aVkay
p4140
aVspartans
p4141
aVwats
p4142
aVmuscle
p4143
aVmobile
p4144
aVroadworks
p4145
aVclear
p4146
aVheres
p4147
aVfoxandfriends
p4148
aVclean
p4149
aVlatest
p4150
aVblend
p4151
aVshoutout
p4152
aVapplertc
p4153
aVjellybeans
p4154
aVhyped
p4155
aVstalker
p4156
aVheavens
p4157
aVkinsey
p4158
aVcotweet
p4159
aVzumba
p4160
aVjustice
p4161
aVchristay
p4162
aVhanafiah
p4163
aVoyeah
p4164
aVfailwhale
p4165
aVyme
p4166
aVpretty
p4167
aVevilroot
p4168
aVmeanwhile
p4169
aVtrees
p4170
aVchars
p4171
aVfamous
p4172
aVfeels
p4173
aVpretending
p4174
aVbasement
p4175
aVrebeccahappy
p4176
aVcassi
p4177
aValexander
p4178
aVtmobile
p4179
aVaxed
p4180
aVgloves
p4181
aVx
aVforster
p4182
aVseventeen
p4183
aVprague
p4184
aVmantra
p4185
aVvenksh
p4186
aVclose
p4187
aVdeandrewright
p4188
aVbandwagon
p4189
aVhorrid
p4190
aVwoz
p4191
aVpictures
p4192
aVwow
p4193
aVdanm
p4194
aVwoo
p4195
aVwon
p4196
aVkinagrannis
p4197
aVwoe
p4198
aVprobably
p4199
aVwog
p4200
aVspringbreak
p4201
aVconditions
p4202
aVgeekrebel
p4203
aVinvisibly
p4204
aVmissing
p4205
aVlindseymshaw
p4206
aVeffed
p4207
aVleague
p4208
aVwoollyknickers
p4209
aVsensitive
p4210
aVanon
p4211
aVbuzz
p4212
aVbots
p4213
aVprotector
p4214
aVkariajay
p4215
aVliked
p4216
aVtwooo
p4217
aVbattery
p4218
aVelses
p4219
aVwhatever
p4220
aVlikes
p4221
aVsebby
p4222
aVlikey
p4223
aVmuchly
p4224
aVstamp
p4225
aVdamp
p4226
aVphillyd
p4227
aVenuff
p4228
aVwasnt
p4229
aVhistwinklingeye
p4230
aVdamn
p4231
aVcoarse
p4232
aVmaintenance
p4233
aVdamm
p4234
aVcollected
p4235
aVempty
p4236
aVcosmetics
p4237
aVlived
p4238
aVbbster
p4239
aVelse
p4240
aVlogjam
p4241
aVdetermination
p4242
aVliver
p4243
aVbidding
p4244
aVintriguing
p4245
aVlook
p4246
aVbattling
p4247
aVgovernor
p4248
aVpace
p4249
aVbikini
p4250
aVaccidently
p4251
aVought
p4252
aVloot
p4253
aVmitchell
p4254
aVguide
p4255
aVdavesusetty
p4256
aVgrabeel
p4257
aVmisterdevans
p4258
aVdanes
p4259
aVjpg
p4260
aVhellow
p4261
aVbow
p4262
aVblissful
p4263
aVincreased
p4264
aVanymore
p4265
aVgrant
p4266
aVaccomplished
p4267
aVmakeshift
p4268
aVmadly
p4269
aVgrand
p4270
aVmodification
p4271
aVmucinex
p4272
aVbriankeithdiaz
p4273
aVhallway
p4274
aVclassmates
p4275
aVfatty
p4276
aVbonus
p4277
aVbanter
p4278
aVoverweight
p4279
aVsmugness
p4280
aVnights
p4281
aVcleaning
p4282
aVubuntugeeks
p4283
aVhjoorth
p4284
aVdatabase
p4285
aVpoland
p4286
aVendsems
p4287
aVgrind
p4288
aVsynopsis
p4289
aVroyalty
p4290
aVredvers
p4291
aVmassage
p4292
aVpricks
p4293
aVstayover
p4294
aVowww
p4295
aVgsl
p4296
aVyankees
p4297
aVjbm
p4298
aVchord
p4299
aVallyayr
p4300
aVboooooooo
p4301
aVtaiwan
p4302
aVpraying
p4303
aVcocks
p4304
aVprocrastinating
p4305
aVgaspitsnicole
p4306
aVretirement
p4307
aVfanfic
p4308
aVfiancee
p4309
aVramielemalubay
p4310
aVnikki
p4311
aVexercising
p4312
aVjerrynugroho
p4313
aVcherries
p4314
aVsoooooo
p4315
aVschoolwork
p4316
aVdavedays
p4317
aVladyparadis
p4318
aVmarch
p4319
aVharibo
p4320
aVlacking
p4321
aVtristo
p4322
aVshowing
p4323
aVgame
p4324
aVtoritruslow
p4325
aVmarcy
p4326
aVwaynes
p4327
aVdamage
p4328
aVwings
p4329
aVsimontay
p4330
aVinterestingly
p4331
aVkimifan
p4332
aVtweetchild
p4333
aVduluth
p4334
aVclapham
p4335
aVdonna
p4336
aVsofa
p4337
aVtranslated
p4338
aVtravoradio
p4339
aVsaturdays
p4340
aVdjbeware
p4341
aVermm
p4342
aVfathers
p4343
aVsalisburydowns
p4344
aVurgent
p4345
aVxxbritneyjeanspearsx
p4346
aVmmmmm
p4347
aVmissnickyhilton
p4348
aVdelivered
p4349
aVdebra
p4350
aVbrookehaskins
p4351
aVomygosh
p4352
aVshoess
p4353
aVmonterrey
p4354
aVeating
p4355
aVachy
p4356
aVrum
p4357
aVgoooood
p4358
aVrua
p4359
aVlivismint
p4360
aVquota
p4361
aVaerosmith
p4362
aVstep
p4363
aVnerves
p4364
aVache
p4365
aVrut
p4366
aVtroops
p4367
aVshine
p4368
aVfaith
p4369
aVwouldnt
p4370
aVdastevens
p4371
aVawwwh
p4372
aVawwww
p4373
aVariel
p4374
aVmayhemstudios
p4375
aVidk
p4376
aVfrv
p4377
aVshiny
p4378
aVmiracles
p4379
aVnamaste
p4380
aVwithin
p4381
aVsubaru
p4382
aVtadi
p4383
aVtrollstigen
p4384
aVcocoandbreezy
p4385
aVtalkn
p4386
aVrolls
p4387
aValison
p4388
aVbehaving
p4389
aVstatistics
p4390
aVdaaay
p4391
aVsushirockstar
p4392
aVsalvadorian
p4393
aVmaaria
p4394
aVwondering
p4395
aVhgtv
p4396
aVfrost
p4397
aVtherealtiffany
p4398
aVcalgary
p4399
aVfeiticeira
p4400
aVdipo
p4401
aVrussian
p4402
aVkristinobobob
p4403
aVcrapped
p4404
aVdull
p4405
aVtoeslaughter
p4406
aVinfo
p4407
aVcreams
p4408
aVskull
p4409
aVrestarted
p4410
aVcircuits
p4411
aVchelsea
p4412
aVuber
p4413
aVordered
p4414
aVcchristinab
p4415
aVdoesn
p4416
aVgecko
p4417
aVgoign
p4418
aVnab
p4419
aVinsomniac
p4420
aVamounts
p4421
aVnak
p4422
aVnah
p4423
aVshinedown
p4424
aVpoliticians
p4425
aVnaw
p4426
aVtits
p4427
aVtwittermarketerpro
p4428
aVmanhattan
p4429
aVsmiles
p4430
aVdraw
p4431
aVstudyin
p4432
aVkristinabitch
p4433
aVevar
p4434
aVsmiley
p4435
aVrested
p4436
aVevan
p4437
aVdrab
p4438
aVchameleon
p4439
aVearphones
p4440
aVe
aVfakerpattz
p4441
aVdvd
p4442
aVheath
p4443
aVrequires
p4444
aVdvr
p4445
aVgw
p4446
aVkaty
p4447
aVgs
p4448
aVgr
p4449
aVgp
p4450
aVrobpattinson
p4451
aVtweeter
p4452
aVgx
p4453
aVgg
p4454
aVgf
p4455
aVge
p4456
aVgd
p4457
aViplt
p4458
aVgo
p4459
aVgm
p4460
aVgl
p4461
aVgk
p4462
aVkate
p4463
aVbaron
p4464
aVarie
p4465
aVwoohoo
p4466
aVsuite
p4467
aVfriendly
p4468
aVsilverstone
p4469
aVvenice
p4470
aVukulele
p4471
aVkitty
p4472
aVeasyleesy
p4473
aVwave
p4474
aVeso
p4475
aVmarialkanellis
p4476
aVfacebook
p4477
aVnausea
p4478
aVsyck
p4479
aVstiff
p4480
aVgender
p4481
aVbutton
p4482
aVassignments
p4483
aVskipped
p4484
aVverdict
p4485
aVpussycatisland
p4486
aVzn
p4487
aVcarter
p4488
aVanaggh
p4489
aVze
p4490
aVblitz
p4491
aVza
p4492
aVboots
p4493
aVwaking
p4494
aVnoise
p4495
aVbooth
p4496
aVpicked
p4497
aVdownload
p4498
aVzu
p4499
aVzv
p4500
aVzp
p4501
aVtwitterr
p4502
aVormo
p4503
aVplays
p4504
aVpaintings
p4505
aVfrankmusik
p4506
aVcell
p4507
aVrotten
p4508
aVexperiment
p4509
aVvalen
p4510
aVnicholas
p4511
aVolafsearson
p4512
aVbrunei
p4513
aVcassie
p4514
aVupsetting
p4515
aVlittlemissruby
p4516
aVeminem
p4517
aVraspberries
p4518
aVweirdo
p4519
aVpancake
p4520
aVorkney
p4521
aVkidnapped
p4522
aVxyou
p4523
aVbloopers
p4524
aVvacay
p4525
aVconvert
p4526
aVnorthern
p4527
aVnitey
p4528
aVyoutubed
p4529
aVvbs
p4530
aVspiderogumi
p4531
aVproducts
p4532
aVthehuntley
p4533
aVwie
p4534
aValthough
p4535
aVjanetastic
p4536
aVlords
p4537
aVwin
p4538
aVtennant
p4539
aVwii
p4540
aVwit
p4541
aVframe
p4542
aVsinging
p4543
aVdosent
p4544
aVcrap
p4545
aVremains
p4546
aVflights
p4547
aVcamera
p4548
aVcoldplay
p4549
aVdeon
p4550
aVcram
p4551
aVsookiebontemps
p4552
aVraiding
p4553
aVcheeks
p4554
aVpopped
p4555
aVdentists
p4556
aVstarted
p4557
aVbecomes
p4558
aVecon
p4559
aVtomz
p4560
aVfuck
p4561
aVcaromcfly
p4562
aVschulferien
p4563
aVresize
p4564
aVstafford
p4565
aVrushad
p4566
aVmeen
p4567
aVride
p4568
aVmissvlovesyou
p4569
aVdonut
p4570
aVcrossed
p4571
aVhotones
p4572
aVmeet
p4573
aVdrops
p4574
aVferrets
p4575
aVraatek
p4576
aVbenlimphoto
p4577
aVglitching
p4578
aVpublicity
p4579
aVpreen
p4580
aVkayleigh
p4581
aVvibe
p4582
aVribs
p4583
aVcampers
p4584
aVlesley
p4585
aValhamdulillah
p4586
aVkutnerrrr
p4587
aVlocated
p4588
aVelliptical
p4589
aVferdinand
p4590
aVcobwebs
p4591
aVgabrielsaporta
p4592
aVscool
p4593
aVibiza
p4594
aVmccainblogette
p4595
aVcatatoniccat
p4596
aVshoppin
p4597
aVfavourites
p4598
aVprocrastination
p4599
aVidiocracy
p4600
aVashkan
p4601
aVfresno
p4602
aVagentbooth
p4603
aVsperm
p4604
aVambercadabra
p4605
aVdachesterfrench
p4606
aVcruise
p4607
aVmentioned
p4608
aVparentstudent
p4609
aVdioriadore
p4610
aVmasses
p4611
aVdancin
p4612
aVemails
p4613
aVpostsecret
p4614
aVsniffling
p4615
aVpussy
p4616
aVclarexsaula
p4617
aVbooed
p4618
aVsword
p4619
aVmisskellyo
p4620
aVnokia
p4621
aVwahahaha
p4622
aVhands
p4623
aViamthecommodore
p4624
aVmorgansdead
p4625
aVsweety
p4626
aVhandy
p4627
aVsophiyy
p4628
aVwebtech
p4629
aVmasters
p4630
aVsineadgrainger
p4631
aVuniversity
p4632
aVpoole
p4633
aVmsknitsox
p4634
aVscones
p4635
aVmode
p4636
aVedwintcg
p4637
aVcrossing
p4638
aVupward
p4639
aVunwind
p4640
aVankles
p4641
aVtwitts
p4642
aVchung
p4643
aVglobe
p4644
aVbooey
p4645
aVcitric
p4646
aVmas
p4647
aVausten
p4648
aVexceeded
p4649
aVlalala
p4650
aVspecial
p4651
aVtwistori
p4652
aVcritics
p4653
aVriiaa
p4654
aVdiggin
p4655
aVcause
p4656
aVblasting
p4657
aVobsess
p4658
aVgreendazzle
p4659
aVumbrella
p4660
aVattending
p4661
aVcompletely
p4662
aVjill
p4663
aVadvisor
p4664
aVceltics
p4665
aVraffale
p4666
aVprincess
p4667
aVoguz
p4668
aVsaberi
p4669
aVflorida
p4670
aVtimes
p4671
aVresumes
p4672
aVannoyin
p4673
aVaustin
p4674
aVbrainbone
p4675
aVlaurencrace
p4676
aVlovato
p4677
aVevans
p4678
aVblogger
p4679
aVpowerful
p4680
aVlayan
p4681
aVimproving
p4682
aVhehe
p4683
aVmichelledom
p4684
aVplaylist
p4685
aVnileyjirus
p4686
aVnoooooo
p4687
aVboyfriends
p4688
aVwrapped
p4689
aVjellyfish
p4690
aVtourists
p4691
aVbritans
p4692
aVpaved
p4693
aVmelissamagicx
p4694
aVmalibu
p4695
aVrsi
p4696
aVrsd
p4697
aVapologise
p4698
aVcya
p4699
aVtlkin
p4700
aVpfff
p4701
aVupdating
p4702
aVoutline
p4703
aVphotograph
p4704
aVcoast
p4705
aVdiscolena
p4706
aVbed
p4707
aVblaynos
p4708
aVmovingtomontana
p4709
aVbex
p4710
aVcravings
p4711
aVsnazzy
p4712
aVbuggers
p4713
aVbev
p4714
aVsq
p4715
aVbet
p4716
aVwolfpack
p4717
aVbobbymonkz
p4718
aVodarling
p4719
aVjulian
p4720
aVarg
p4721
aVbentley
p4722
aVhalal
p4723
aVneed
p4724
aVborder
p4725
aVsilversea
p4726
aVfineee
p4727
aVguyz
p4728
aVatlasobscura
p4729
aVcranes
p4730
aViranelections
p4731
aVable
p4732
aVarm
p4733
aVmakeover
p4734
aVbloodbath
p4735
aVsh
p4736
aVgoddamned
p4737
aVlaurenconrad
p4738
aVaww
p4739
aVsewing
p4740
aVcamper
p4741
aVthts
p4742
aVezrabutler
p4743
aVlonghand
p4744
aVawe
p4745
aVexpired
p4746
aVgallery
p4747
aVcellphone
p4748
aVplumber
p4749
aVurg
p4750
aVconsequences
p4751
aVpulled
p4752
aVeachother
p4753
aVupset
p4754
aVmanga
p4755
aVgobux
p4756
aVscrambled
p4757
aVtalk
p4758
aVwot
p4759
aVbuckcherry
p4760
aVimpression
p4761
aVparked
p4762
aVvanillasuicide
p4763
aVtommcfly
p4764
aVarifgan
p4765
aVunderoath
p4766
aVayee
p4767
aVsnobscrilla
p4768
aVenvy
p4769
aVnga
p4770
aVtire
p4771
aVhadn
p4772
aVfiberglass
p4773
aVhopeful
p4774
aVbrighten
p4775
aVrash
p4776
aVemployer
p4777
aVvirgo
p4778
aVmistygirlph
p4779
aVemployee
p4780
aValubum
p4781
aVachieve
p4782
aVdodge
p4783
aVmga
p4784
aVcyberela
p4785
aVmichigan
p4786
aVoverall
p4787
aVsasss
p4788
aVtbc
p4789
aVendless
p4790
aVgray
p4791
aVrlly
p4792
aVgailporter
p4793
aVtrucks
p4794
aVboomboombetty
p4795
aVshy
p4796
aVughh
p4797
aVnetizensmedia
p4798
aVtuned
p4799
aVgram
p4800
aVgran
p4801
aVdangerous
p4802
aVgrab
p4803
aVgrad
p4804
aVsho
p4805
aVspotted
p4806
aVpitch
p4807
aVhumans
p4808
aVbiz
p4809
aVcomputer
p4810
aVpowder
p4811
aVdesperate
p4812
aVyeye
p4813
aVofficialy
p4814
aVluv
p4815
aVjoys
p4816
aVnightmare
p4817
aVhorribly
p4818
aVsupernatural
p4819
aVhorrible
p4820
aVluh
p4821
aVneither
p4822
aVpearlbones
p4823
aVkel
p4824
aVpennyxlane
p4825
aVimportance
p4826
aVsupernova
p4827
aVkeb
p4828
aVkicking
p4829
aVkey
p4830
aVcrackberry
p4831
aVjennymac
p4832
aVthumb
p4833
aVhits
p4834
aVmindy
p4835
aVsniff
p4836
aVcareer
p4837
aVminds
p4838
aVchaitee
p4839
aVadmit
p4840
aVmonitor
p4841
aVchapstick
p4842
aVriannonfan
p4843
aVrebekah
p4844
aVspandex
p4845
aVtroubles
p4846
aVtuesday
p4847
aVdenise
p4848
aVgitu
p4849
aVstuti
p4850
aVhellboy
p4851
aVpumpkinpeasyx
p4852
aVokelin
p4853
aVwilly
p4854
aVquit
p4855
aVinhale
p4856
aVyay
p4857
aVaddition
p4858
aVyat
p4859
aVyaw
p4860
aVsara
p4861
aVthankee
p4862
aVcent
p4863
aVyan
p4864
aVslowly
p4865
aVtreat
p4866
aVpoet
p4867
aVkalas
p4868
aViheartjoan
p4869
aVyaa
p4870
aVusername
p4871
aVshoulders
p4872
aVpic
p4873
aVtownhallsteps
p4874
aVoversleeping
p4875
aVcontroller
p4876
aVhamburg
p4877
aVbrunch
p4878
aVcuts
p4879
aVotw
p4880
aVnovel
p4881
aVharder
p4882
aVcornering
p4883
aVlarsenmarit
p4884
aVwooohooo
p4885
aVsimonw
p4886
aViremember
p4887
aVdemo
p4888
aVdemi
p4889
aVfivedials
p4890
aVbucks
p4891
aVcapture
p4892
aVkepompong
p4893
aVbegan
p4894
aVautism
p4895
aVstrange
p4896
aVzuhiboy
p4897
aVparty
p4898
aVfanatics
p4899
aVexperimented
p4900
aVhttp
p4901
aVheartmileycyrus
p4902
aVgaeilge
p4903
aVappearances
p4904
aVforgotten
p4905
aVeffect
p4906
aVchristening
p4907
aVhuhuhu
p4908
aVspree
p4909
aVfeelin
p4910
aVsingle
p4911
aVenergized
p4912
aVsambennington
p4913
aVnacda
p4914
aVmech
p4915
aVvariety
p4916
aVwell
p4917
aVooooon
p4918
aVenormously
p4919
aVsourced
p4920
aVdaii
p4921
aVwendilynnmakeup
p4922
aVaccurate
p4923
aVtgp
p4924
aVmistaken
p4925
aVdistant
p4926
aVlaurel
p4927
aVskill
p4928
aVlately
p4929
aVpondering
p4930
aVkavitacaroline
p4931
aVvida
p4932
aVrussmarshalek
p4933
aVbullshit
p4934
aVpsibreaker
p4935
aVvids
p4936
aVfootballer
p4937
aVnate
p4938
aVsonic
p4939
aVfate
p4940
aVutah
p4941
aVburden
p4942
aVtwitterbongs
p4943
aVimmediately
p4944
aVdomains
p4945
aVloss
p4946
aVnecessary
p4947
aVlost
p4948
aVchristinasticky
p4949
aVlose
p4950
aVshed
p4951
aVxclairecatx
p4952
aVfunctional
p4953
aVyojibee
p4954
aVcomeing
p4955
aVtwitter
p4956
aVtwittes
p4957
aVlibrary
p4958
aVwarmer
p4959
aVincubus
p4960
aVcleveland
p4961
aVhome
p4962
aVpeter
p4963
aVawwwwwwww
p4964
aVshiiiit
p4965
aVgrinding
p4966
aVrewarding
p4967
aVsarahmonline
p4968
aVfanny
p4969
aVduh
p4970
aVmedieval
p4971
aVjournal
p4972
aVannadestefano
p4973
aVglasto
p4974
aVnaps
p4975
aVwaspinator
p4976
aVtweeters
p4977
aVhatheway
p4978
aVfreedom
p4979
aVdanecook
p4980
aVrecognized
p4981
aVnightclub
p4982
aVcompatible
p4983
aVjessicapinup
p4984
aVloubella
p4985
aVtongue
p4986
aVequally
p4987
aVbedddd
p4988
aVtock
p4989
aVglenn
p4990
aVprimal
p4991
aVlaurenconradx
p4992
aVmushrooms
p4993
aVoywko
p4994
aVbackups
p4995
aVhmmmmm
p4996
aVpermits
p4997
aVmoonfrye
p4998
aVmuseum
p4999
aVrelegated
p5000
aVpa
p5001
aVinbetweeners
p5002
aVdolphins
p5003
aVzyote
p5004
aVhx
p5005
aVcrushing
p5006
aVlollyjay
p5007
aVkandi
p5008
aVhr
p5009
aVmucked
p5010
aVmissjeffreestar
p5011
aVhv
p5012
aVhw
p5013
aVsarnies
p5014
aVhu
p5015
aVhj
p5016
aVhk
p5017
aVhh
p5018
aVhi
p5019
aVkezialyla
p5020
aVhighest
p5021
aVkathie
p5022
aVhg
p5023
aVastra
p5024
aVdmc
p5025
aVgiagia
p5026
aVcells
p5027
aVduongsheahan
p5028
aVcruel
p5029
aVdms
p5030
aVlimit
p5031
aVwoke
p5032
aVdmw
p5033
aVpiece
p5034
aVrealtors
p5035
aVuniversal
p5036
aVpaling
p5037
aVkisses
p5038
aVtb
p5039
aVmrdarcy
p5040
aVconan
p5041
aVkissed
p5042
aVipods
p5043
aVeric
p5044
aVdiego
p5045
aVtick
p5046
aVthebackpackr
p5047
aVrumors
p5048
aVcontest
p5049
aVstarbuck
p5050
aVcrummy
p5051
aVstumps
p5052
aVcarlisle
p5053
aVtalkin
p5054
aVchemist
p5055
aVmonitors
p5056
aVtwitterworld
p5057
aVstay
p5058
aVbackstage
p5059
aVbck
p5060
aVgaids
p5061
aVbcc
p5062
aVportion
p5063
aVniabassett
p5064
aVdiagnosis
p5065
aVlives
p5066
aVcommencement
p5067
aVsecondly
p5068
aVwhoops
p5069
aVdynamic
p5070
aVtodayy
p5071
aVasian
p5072
aVmallypattz
p5073
aVcaptain
p5074
aVaud
p5075
aVaug
p5076
aVpresents
p5077
aVfio
p5078
aVeorg
p5079
aVrecycle
p5080
aVteaching
p5081
aVsorry
p5082
aVmikefranklin
p5083
aVsway
p5084
aVupdated
p5085
aVchennai
p5086
aVcruising
p5087
aVvoid
p5088
aVmisunderstanding
p5089
aVgeorgia
p5090
aVgaslight
p5091
aVaffect
p5092
aVsickkkkk
p5093
aVskillz
p5094
aVbaking
p5095
aVskills
p5096
aVcommons
p5097
aVboohoo
p5098
aVunrelated
p5099
aVtheree
p5100
aVbluorchid
p5101
aVupp
p5102
aVrmedina
p5103
aVforce
p5104
aVcolabs
p5105
aVhelluva
p5106
aVimplemented
p5107
aVfixin
p5108
aVeven
p5109
aVjaneybelle
p5110
aVzakupilot
p5111
aVnem
p5112
aVwreck
p5113
aVasia
p5114
aVnez
p5115
aVnew
p5116
aVnet
p5117
aVniche
p5118
aVmea
p5119
aVhenrie
p5120
aVcrucifire
p5121
aVandybumatai
p5122
aVnever
p5123
aVmeh
p5124
aVjohnwlittle
p5125
aVwrdw
p5126
aVmet
p5127
aVlucindaaxo
p5128
aVmaganda
p5129
aVgisburn
p5130
aVdry
p5131
aVfreerangehaggis
p5132
aVjams
p5133
aVbookmarklet
p5134
aVdrs
p5135
aVeconomics
p5136
aVignoring
p5137
aVeh
p5138
aVcindy
p5139
aVpermit
p5140
aVbuckley
p5141
aVtwxtd
p5142
aVyuri
p5143
aVfantastic
p5144
aVcampaign
p5145
aVmobility
p5146
aVschooling
p5147
aVemilyruppe
p5148
aVscroobiuspip
p5149
aVkimmyt
p5150
aVcough
p5151
aVarmy
p5152
aVtweeps
p5153
aVrecommend
p5154
aVtype
p5155
aVcalf
p5156
aVarma
p5157
aVposting
p5158
aVlungs
p5159
aVoscar
p5160
aVpulang
p5161
aVbiatch
p5162
aVward
p5163
aVeyedea
p5164
aVshamrock
p5165
aVsouthcitystudio
p5166
aVroom
p5167
aVsltc
p5168
aVrights
p5169
aVsetup
p5170
aVrood
p5171
aVwhack
p5172
aVjayde
p5173
aVsumthing
p5174
aVroot
p5175
aVcaitlyn
p5176
aVitagg
p5177
aVgive
p5178
aVmarleyterrier
p5179
aVblips
p5180
aVlaughs
p5181
aVstressing
p5182
aVsyarif
p5183
aVinvolve
p5184
aVhomie
p5185
aVappiphany
p5186
aVofficialakaye
p5187
aVgogcom
p5188
aVcoldy
p5189
aVanguish
p5190
aVjaayyjones
p5191
aVstills
p5192
aVstilll
p5193
aVamazing
p5194
aVanswer
p5195
aVcoldd
p5196
aVnewquay
p5197
aVundergoing
p5198
aVamberportercox
p5199
aVforteller
p5200
aVvicious
p5201
aVthankyou
p5202
aVplzzzzzzzzz
p5203
aVwaterfront
p5204
aVpresident
p5205
aVtittch
p5206
aVlesbian
p5207
aVpurchase
p5208
aVils
p5209
aVmaintain
p5210
aVgoodbye
p5211
aVuninsured
p5212
aVovertakes
p5213
aVoperations
p5214
aVplecat
p5215
aVtiredofbeinsexy
p5216
aVwuu
p5217
aVpushplaycj
p5218
aVnadhiyamali
p5219
aVhelena
p5220
aVdiddy
p5221
aVbanged
p5222
aVsaving
p5223
aVkneegrowsodmg
p5224
aVpersonal
p5225
aVbetter
p5226
aVenlisted
p5227
aVchatty
p5228
aVweeks
p5229
aVtwolay
p5230
aVserenajwilliams
p5231
aVworkout
p5232
aVrunny
p5233
aVtherapy
p5234
aVanix
p5235
aVindulge
p5236
aVbronchial
p5237
aVgrammar
p5238
aVbrightness
p5239
aVsleepless
p5240
aVewwww
p5241
aVsleeeppp
p5242
aVacoustic
p5243
aVwent
p5244
aVmeal
p5245
aVbone
p5246
aVluck
p5247
aVadobe
p5248
aVskint
p5249
aVcroup
p5250
aVmilan
p5251
aVjohncmayer
p5252
aVforgot
p5253
aVaids
p5254
aVdawn
p5255
aVcollector
p5256
aVvelvet
p5257
aVsatans
p5258
aVsparkly
p5259
aVtraceymorroll
p5260
aVsurprise
p5261
aVgrease
p5262
aVtasha
p5263
aVfave
p5264
aVrevenge
p5265
aVgahhh
p5266
aVhoodie
p5267
aVmistress
p5268
aVbrrr
p5269
aVsearock
p5270
aVxuv
p5271
aVcmt
p5272
aVerniehalter
p5273
aVstarts
p5274
aVisp
p5275
aVmessages
p5276
aVspaulds
p5277
aVshush
p5278
aVist
p5279
aVtheropolitans
p5280
aVisn
p5281
aVwerewolfjacob
p5282
aVmessaged
p5283
aVuser
p5284
aVlaggy
p5285
aVjemcam
p5286
aVgrade
p5287
aVjjt
p5288
aVtwitches
p5289
aVlettuce
p5290
aVfeatured
p5291
aVseven
p5292
aVcomforter
p5293
aVimmensely
p5294
aVditch
p5295
aVhood
p5296
aVnastiness
p5297
aVniight
p5298
aVhawks
p5299
aVtwisted
p5300
aVfuhhh
p5301
aVraihanamcfly
p5302
aVoceanuptwitt
p5303
aVhowzit
p5304
aVhollywood
p5305
aVtwister
p5306
aVtg
p5307
aVheavygrinder
p5308
aVbouncing
p5309
aVgym
p5310
aVgretchen
p5311
aVhampden
p5312
aVspoiler
p5313
aVanxiety
p5314
aVbookshelves
p5315
aVouchies
p5316
aVstreet
p5317
aVsilly
p5318
aVhottie
p5319
aVlexiepixie
p5320
aVknights
p5321
aVenabler
p5322
aVguessin
p5323
aVathenaparthenos
p5324
aVtelll
p5325
aVvector
p5326
aVpistons
p5327
aVmodern
p5328
aVmind
p5329
aVginger
p5330
aVming
p5331
aVseee
p5332
aVamandasena
p5333
aVplzz
p5334
aVsandyslut
p5335
aVseen
p5336
aVseem
p5337
aVseek
p5338
aVtells
p5339
aVcheep
p5340
aVhorde
p5341
aVbengal
p5342
aVjwoon
p5343
aVmorninggg
p5344
aVmemo
p5345
aVcoldzero
p5346
aVtym
p5347
aVtyk
p5348
aVkoko
p5349
aVclapton
p5350
aVsendiri
p5351
aVexframebuilder
p5352
aVmario
p5353
aVeajosh
p5354
aVhide
p5355
aVunfortunatley
p5356
aVzealand
p5357
aVdoh
p5358
aVindiefixx
p5359
aVdoc
p5360
aValarm
p5361
aVm
aVdog
p5362
aVslipknot
p5363
aVdefinitely
p5364
aVscotch
p5365
aVannoyed
p5366
aVlyrics
p5367
aVretire
p5368
aVending
p5369
aVattempts
p5370
aVfrappuccino
p5371
aViamsuperbianca
p5372
aVprobs
p5373
aVmtar
p5374
aVecopup
p5375
aVtinkugallery
p5376
aVweekends
p5377
aVacne
p5378
aVsugar
p5379
aVcelery
p5380
aVthebiggerlights
p5381
aVlightening
p5382
aVwearing
p5383
aVkutner
p5384
aVgawjus
p5385
aVsmut
p5386
aVstop
p5387
aVahahaha
p5388
aVmeditate
p5389
aVwatermelon
p5390
aVbeatccr
p5391
aVearn
p5392
aVbar
p5393
aVbay
p5394
aVbad
p5395
aVbac
p5396
aVban
p5397
aVbam
p5398
aVbah
p5399
aVhumanly
p5400
aVtesting
p5401
aVpile
p5402
aVmagnusholmgren
p5403
aVbooerns
p5404
aVbigpurpleheart
p5405
aVsubject
p5406
aVahhhhhhhhh
p5407
aVjasonarredondo
p5408
aVpeta
p5409
aVseaofbeauty
p5410
aVscrap
p5411
aVshaved
p5412
aVsahalmerchant
p5413
aVolympics
p5414
aVtolerance
p5415
aVtriplepatte
p5416
aVwarrior
p5417
aVreddit
p5418
aValroker
p5419
aVomg
p5420
aVwears
p5421
aVrealaudreykitch
p5422
aVorthodontist
p5423
aVsophie
p5424
aVhothusband
p5425
aVeyeball
p5426
aVunc
p5427
aVund
p5428
aVrestarting
p5429
aVfangirl
p5430
aVung
p5431
aVuni
p5432
aVdepresses
p5433
aVyaay
p5434
aVappeared
p5435
aVlullaby
p5436
aVbloomin
p5437
aVollien
p5438
aVmonay
p5439
aVyaaa
p5440
aVsprings
p5441
aVoffered
p5442
aVtasted
p5443
aVasks
p5444
aVdusting
p5445
aVchels
p5446
aVthree
p5447
aVtiny
p5448
aVoooooo
p5449
aVtwitterthon
p5450
aVadlantis
p5451
aVdananner
p5452
aVlovely
p5453
aVtink
p5454
aVmissbr
p5455
aVangstmann
p5456
aVthrew
p5457
aVchug
p5458
aVprosperous
p5459
aVendlessblush
p5460
aVsunshine
p5461
aVsooooo
p5462
aVshattering
p5463
aVpersonally
p5464
aVmcr
p5465
aVunpopular
p5466
aVtank
p5467
aVsly
p5468
aVnicee
p5469
aVslr
p5470
aVremaining
p5471
aVugly
p5472
aVnear
p5473
aVvikki
p5474
aVneat
p5475
aVinsomia
p5476
aVcand
p5477
aVcane
p5478
aVmexico
p5479
aViq
p5480
aVslickt
p5481
aViu
p5482
aVdefeated
p5483
aViv
p5484
aVii
p5485
aVshame
p5486
aVcant
p5487
aVim
p5488
aVil
p5489
aVio
p5490
aVmightymur
p5491
aVia
p5492
aVgervais
p5493
aVib
p5494
aVie
p5495
aVid
p5496
aVdisappear
p5497
aVtucking
p5498
aVmeetup
p5499
aVjolene
p5500
aVbottled
p5501
aVhahah
p5502
aVunfortunate
p5503
aVchatroom
p5504
aVsurblimity
p5505
aVello
p5506
aVrikahearts
p5507
aVlomantik
p5508
aVfinshed
p5509
aVbrowsing
p5510
aVireport
p5511
aVkim
p5512
aVjealous
p5513
aVovers
p5514
aVthoughts
p5515
aVpacbirthday
p5516
aVprograms
p5517
aVazsamad
p5518
aVfailing
p5519
aVrome
p5520
aVpandora
p5521
aVwoohoooo
p5522
aVclaims
p5523
aVyourr
p5524
aVaubreyoday
p5525
aVleft
p5526
aVjuss
p5527
aVsentence
p5528
aVjusz
p5529
aVunfollow
p5530
aVyee
p5531
aVunfair
p5532
aVyeg
p5533
aVyey
p5534
aVbandwidth
p5535
aVhuman
p5536
aVfacts
p5537
aVyep
p5538
aVyes
p5539
aVyet
p5540
aVyew
p5541
aVomfg
p5542
aVagile
p5543
aVroyal
p5544
aVsoaked
p5545
aVsalamat
p5546
aVtherealjibbs
p5547
aVsuziperry
p5548
aVyepp
p5549
aVsave
p5550
aVadress
p5551
aVopt
p5552
aVopp
p5553
aVpreseason
p5554
aVtmro
p5555
aVamarillo
p5556
aVbackground
p5557
aVdreamt
p5558
aVfeelings
p5559
aVmyelle
p5560
aVvanity
p5561
aVshoulder
p5562
aVaquilogy
p5563
aVvisible
p5564
aVperforming
p5565
aVmanual
p5566
aVkazz
p5567
aVzeeblet
p5568
aVtesters
p5569
aVoverslept
p5570
aVcoco
p5571
aVwww
p5572
aVmariahcarey
p5573
aVdeaf
p5574
aVdead
p5575
aVeep
p5576
aVwwe
p5577
aVthewych
p5578
aVarekkutronic
p5579
aVwwi
p5580
aVbre
p5581
aVignore
p5582
aVgrading
p5583
aVdaytime
p5584
aVmidler
p5585
aVnatneagle
p5586
aVpokestuff
p5587
aVaaaaah
p5588
aVbrendanvalencia
p5589
aVbold
p5590
aVneilhimself
p5591
aVburt
p5592
aVbolt
p5593
aVanwb
p5594
aVburr
p5595
aVkeeper
p5596
aVmedscholar
p5597
aVsuper
p5598
aVpuking
p5599
aVoreo
p5600
aVbackatcha
p5601
aVcaffine
p5602
aVtoodamnninja
p5603
aVblockparty
p5604
aVmagazine
p5605
aVafternoon
p5606
aVcommit
p5607
aVautomatically
p5608
aVtonsilitis
p5609
aVgloss
p5610
aVwhats
p5611
aVlied
p5612
aVnadine
p5613
aVlies
p5614
aVkaydeefortuin
p5615
aVmoderatorated
p5616
aVjeng
p5617
aVcones
p5618
aVtennis
p5619
aVtheatman
p5620
aVshellrawlins
p5621
aVyesandme
p5622
aVfork
p5623
aVoffering
p5624
aVpake
p5625
aVfireworks
p5626
aVlanding
p5627
aVford
p5628
aVfeminine
p5629
aVconchords
p5630
aVapproval
p5631
aVcolinkelly
p5632
aVloreliebrown
p5633
aViambhargava
p5634
aVattached
p5635
aVwhiskey
p5636
aVtucson
p5637
aVeconomic
p5638
aVsapphire
p5639
aVzara
p5640
aVhazelgreenluv
p5641
aVhorrifying
p5642
aVpeterfacinelli
p5643
aVdelete
p5644
aVseparated
p5645
aVsticks
p5646
aVclassic
p5647
aVsale
p5648
aVthunk
p5649
aVfashioned
p5650
aVmuffins
p5651
aVmediocre
p5652
aVshit
p5653
aVtarde
p5654
aVmarking
p5655
aVagreeing
p5656
aVfosters
p5657
aVgaksdesigns
p5658
aVhornysophie
p5659
aVholls
p5660
aVintuitive
p5661
aVwarehouse
p5662
aVglovesub
p5663
aVdies
p5664
aVfelt
p5665
aVrien
p5666
aVunwell
p5667
aVoutback
p5668
aVfell
p5669
aVbrightens
p5670
aVpizzas
p5671
aVweekend
p5672
aVdied
p5673
aVbabysitting
p5674
aVsandrarodrigues
p5675
aVwendyness
p5676
aVallright
p5677
aVpotato
p5678
aVassume
p5679
aVdaily
p5680
aVherebeforeoprah
p5681
aVluckier
p5682
aVyayayay
p5683
aVteeth
p5684
aVparcels
p5685
aVoverdue
p5686
aVthemed
p5687
aVlockdown
p5688
aVcking
p5689
aVskit
p5690
aVinvent
p5691
aVlaura
p5692
aVabideedles
p5693
aVpeole
p5694
aVshot
p5695
aVsega
p5696
aVskid
p5697
aVjiji
p5698
aVanticipation
p5699
aVyummy
p5700
aVmarissa
p5701
aVfather
p5702
aVdisgusting
p5703
aVunderoathband
p5704
aVcountdown
p5705
aVamaze
p5706
aVfinally
p5707
aVpraised
p5708
aVyummi
p5709
aVspamers
p5710
aVchoir
p5711
aVaspx
p5712
aVpjvery
p5713
aVslash
p5714
aVdegrassi
p5715
aVsappy
p5716
aVlynch
p5717
aVma
p5718
aVmarybabysteps
p5719
aVtynie
p5720
aVdim
p5721
aVstapler
p5722
aVswapping
p5723
aVhugest
p5724
aVdie
p5725
aVdig
p5726
aVaccidentally
p5727
aVtravels
p5728
aVhowarewe
p5729
aVguahanboy
p5730
aVdiz
p5731
aVdit
p5732
aVdiv
p5733
aVcaptainkazz
p5734
aVitec
p5735
aVshave
p5736
aVville
p5737
aVolympic
p5738
aVtalked
p5739
aVseasoning
p5740
aVdealing
p5741
aVkimparsell
p5742
aVcorner
p5743
aViamdiddy
p5744
aVhyperopia
p5745
aVyoda
p5746
aVcrictor
p5747
aVarvo
p5748
aVpembteaco
p5749
aVching
p5750
aVsharkeymalarkey
p5751
aVsuspect
p5752
aVbooring
p5753
aVpinktrees
p5754
aVbooklet
p5755
aVummmm
p5756
aVdevlit
p5757
aVtimcampbelltwit
p5758
aVmariahs
p5759
aVbloke
p5760
aVambermatson
p5761
aVcongestion
p5762
aVmaxfisher
p5763
aVearthquake
p5764
aVwait
p5765
aVhbo
p5766
aVyessss
p5767
aVcanadian
p5768
aVshift
p5769
aVsillyy
p5770
aVnickkkjonasss
p5771
aVbom
p5772
aVbon
p5773
aVboo
p5774
aVraccoon
p5775
aVboa
p5776
aVnylon
p5777
aVbruised
p5778
aVbof
p5779
aVvvbrown
p5780
aVbreathtaking
p5781
aVtreasure
p5782
aVuseful
p5783
aVtaunton
p5784
aVinformatics
p5785
aVmodus
p5786
aVverge
p5787
aVoutoutout
p5788
aVeverybody
p5789
aVaaaw
p5790
aVaye
p5791
aVvisit
p5792
aVperm
p5793
aVperl
p5794
aVthru
p5795
aVahha
p5796
aVsharing
p5797
aVooc
p5798
aVdublins
p5799
aVgerms
p5800
aVooh
p5801
aVdowntown
p5802
aVitstayloryall
p5803
aVtwimailer
p5804
aVadverts
p5805
aVolive
p5806
aVultraviolet
p5807
aVfosho
p5808
aVtokyo
p5809
aVavoiding
p5810
aVflu
p5811
aVsoul
p5812
aVsoup
p5813
aVsour
p5814
aVawareness
p5815
aVflo
p5816
aVfla
p5817
aVmaking
p5818
aVarrive
p5819
aVbites
p5820
aVdeceased
p5821
aVnearest
p5822
aVgrouchy
p5823
aVkiddos
p5824
aVadrence
p5825
aVconfused
p5826
aVagent
p5827
aVpally
p5828
aVsample
p5829
aVarghhhh
p5830
aVcouncil
p5831
aVjoeymcintyre
p5832
aVwayyyy
p5833
aVdrewm
p5834
aVpink
p5835
aVrelativesanity
p5836
aVrays
p5837
aVoslo
p5838
aVpine
p5839
aVpervy
p5840
aVsunday
p5841
aVpure
p5842
aVskates
p5843
aVpins
p5844
aVgreets
p5845
aVnya
p5846
aVpint
p5847
aVsng
p5848
aVstaying
p5849
aVdesigner
p5850
aVmau
p5851
aVbellalamb
p5852
aVmay
p5853
aVfreezing
p5854
aVsnl
p5855
aVhelmut
p5856
aVmembership
p5857
aVmad
p5858
aVmag
p5859
aVguys
p5860
aVman
p5861
aVneck
p5862
aVjohnson
p5863
aVmaybe
p5864
aVtapas
p5865
aVelledell
p5866
aVgreetz
p5867
aVfluent
p5868
aVswitch
p5869
aVcascada
p5870
aVtall
p5871
aVheehee
p5872
aVtarasutphen
p5873
aVcute
p5874
aVannemai
p5875
aVnutt
p5876
aVhungy
p5877
aVpointed
p5878
aVnorthampton
p5879
aVwishing
p5880
aVremmeber
p5881
aVshake
p5882
aVnatashax
p5883
aVpointer
p5884
aVthank
p5885
aVsmoothie
p5886
aVinteresting
p5887
aVthanx
p5888
aVlisting
p5889
aVtweets
p5890
aVmail
p5891
aVtexas
p5892
aVbillbeckett
p5893
aVfinance
p5894
aVkiller
p5895
aVsoulful
p5896
aVlunch
p5897
aVtouching
p5898
aVlilowe
p5899
aVtheengteacher
p5900
aVkilled
p5901
aVthanksss
p5902
aVxlc
p5903
aVjoepolitics
p5904
aVmaher
p5905
aVrock
p5906
aVyoutubing
p5907
aVeyelid
p5908
aVzurich
p5909
aVabnormal
p5910
aVlizabeth
p5911
aVlcrealestate
p5912
aVdoubledown
p5913
aVcanada
p5914
aVahmadinejad
p5915
aVjackson
p5916
aVstitch
p5917
aVmiles
p5918
aVdutch
p5919
aVsensor
p5920
aVcorrect
p5921
aVnostril
p5922
aVchavs
p5923
aVgagging
p5924
aVgotd
p5925
aVauch
p5926
aVcalifornia
p5927
aVdemanding
p5928
aVbrooke
p5929
aVgots
p5930
aVheadband
p5931
aVkeith
p5932
aVsurforama
p5933
aVadvance
p5934
aVunderwear
p5935
aVmarred
p5936
aVthins
p5937
aVlanguage
p5938
aVministry
p5939
aVstandby
p5940
aVheadphones
p5941
aVcontented
p5942
aVnofollow
p5943
aVthing
p5944
aVnuff
p5945
aVpepperoni
p5946
aVnufc
p5947
aVyest
p5948
aVyess
p5949
aVthink
p5950
aVwaited
p5951
aVjakeo
p5952
aVplacing
p5953
aVrachel
p5954
aVcrib
p5955
aVskrg
p5956
aVfast
p5957
aVsounds
p5958
aVfiji
p5959
aVcheesy
p5960
aVcris
p5961
aVbestival
p5962
aVslept
p5963
aVanyone
p5964
aVjeremy
p5965
aVparticipated
p5966
aVspeaking
p5967
aVmeme
p5968
aVeyes
p5969
aVhaveboard
p5970
aVloneliest
p5971
aVbroadcast
p5972
aVeyed
p5973
aVpfmonaco
p5974
aVcocktails
p5975
aVscraping
p5976
aVgotta
p5977
aVvictorian
p5978
aVprotected
p5979
aVbooted
p5980
aVwhooooooo
p5981
aVmoneyyyy
p5982
aVchristinevee
p5983
aVgathering
p5984
aVlick
p5985
aVbberry
p5986
aVstubby
p5987
aVwknd
p5988
aVtopics
p5989
aVvoices
p5990
aVwinding
p5991
aVsulk
p5992
aVoccupied
p5993
aVtalis
p5994
aVwarsaw
p5995
aVmonicaayesha
p5996
aVsquat
p5997
aVbailed
p5998
aVefficient
p5999
aVciaranokeeffe
p6000
aVshocked
p6001
aVlamase
p6002
aVsquad
p6003
aVperformance
p6004
aVkuwento
p6005
aVnandoism
p6006
aVvarunsridhar
p6007
aVpain
p6008
aVwooow
p6009
aVcheesecake
p6010
aValoud
p6011
aVpinkelephantpun
p6012
aVlouieaberia
p6013
aVsheets
p6014
aVluzar
p6015
aVpair
p6016
aVtracy
p6017
aVwoooo
p6018
aVqueens
p6019
aVradioactive
p6020
aVsurprising
p6021
aVbangin
p6022
aVnapkin
p6023
aVlarry
p6024
aVvoodoo
p6025
aVplayoffs
p6026
aVnewer
p6027
aVjowalshy
p6028
aVihenpecked
p6029
aVshod
p6030
aVshoe
p6031
aVtiredness
p6032
aVinterpretation
p6033
aVdaypa
p6034
aVteacup
p6035
aVdice
p6036
aVreel
p6037
aVdick
p6038
aVstorms
p6039
aVbehind
p6040
aVeither
p6041
aVblack
p6042
aVfrikken
p6043
aVtravesty
p6044
aVdisconcerting
p6045
aVsplogs
p6046
aVranking
p6047
aVjecsa
p6048
aVhungarian
p6049
aVget
p6050
aVrefreshed
p6051
aVdesignated
p6052
aVspraying
p6053
aVkillers
p6054
aVamygumenick
p6055
aVgen
p6056
aVutd
p6057
aVfrolicking
p6058
aVmalaysian
p6059
aVmorning
p6060
aVfanboy
p6061
aVmiler
p6062
aVstupid
p6063
aVjourneywoman
p6064
aVdegress
p6065
aVmiley
p6066
aVworrying
p6067
aVbetsey
p6068
aVhonesty
p6069
aVseas
p6070
aVblimmin
p6071
aVpendragon
p6072
aVcologne
p6073
aVteething
p6074
aVseal
p6075
aVcalendar
p6076
aVsatisfying
p6077
aVsleepin
p6078
aVmaryse
p6079
aVvanny
p6080
aVenough
p6081
aVgaga
p6082
aVreading
p6083
aVruptured
p6084
aVaffordable
p6085
aVmypict
p6086
aVinfrastructure
p6087
aVjx
p6088
aVaugust
p6089
aVparent
p6090
aVkool
p6091
aVjt
p6092
aVju
p6093
aViakido
p6094
aVtut
p6095
aVtimmy
p6096
aVjr
p6097
aVkilling
p6098
aVjl
p6099
aVjm
p6100
aVjn
p6101
aVjo
p6102
aVsaramorris
p6103
aVjj
p6104
aVjk
p6105
aVjd
p6106
aVje
p6107
aVja
p6108
aVjb
p6109
aVdates
p6110
aVfried
p6111
aVrugby
p6112
aVnyte
p6113
aVmizzj
p6114
aVrowland
p6115
aVpezholio
p6116
aVtour
p6117
aVselenagomez
p6118
aVdisappointment
p6119
aVasteptam
p6120
aVamong
p6121
aVstretcher
p6122
aVfirewall
p6123
aVdelamarrx
p6124
aVdubarrymcfly
p6125
aVonenil
p6126
aVstretched
p6127
aVviveksingh
p6128
aVspecializing
p6129
aVarts
p6130
aVmara
p6131
aVmarc
p6132
aVbarry
p6133
aVgeekgirl
p6134
aVpollstar
p6135
aVmari
p6136
aVmart
p6137
aVroxibear
p6138
aVworkshop
p6139
aVmars
p6140
aVborders
p6141
aVmary
p6142
aVroselyn
p6143
aVeducated
p6144
aVshopping
p6145
aVgraveyard
p6146
aVwaky
p6147
aVngowers
p6148
aVsquash
p6149
aVantistatica
p6150
aVdramatic
p6151
aVwake
p6152
aVnimoy
p6153
aVhatin
p6154
aVoverdose
p6155
aVmyinkyfingersau
p6156
aVslumber
p6157
aVgingo
p6158
aViamjersey
p6159
aVhdd
p6160
aVongoing
p6161
aVrhodes
p6162
aVcancelled
p6163
aVcock
p6164
aVbuckhead
p6165
aVhsnging
p6166
aVbathrooms
p6167
aVulysses
p6168
aVmiasoliz
p6169
aVrubbing
p6170
aVrammed
p6171
aVsleeping
p6172
aVsprained
p6173
aVmiddle
p6174
aVsudden
p6175
aVyeees
p6176
aVdangerously
p6177
aVloosing
p6178
aVscavenger
p6179
aVprotein
p6180
aVjooeeyy
p6181
aVvikaskumar
p6182
aVpeterdonald
p6183
aVdifferent
p6184
aVjosordoni
p6185
aVdoctor
p6186
aVpay
p6187
aVenquiries
p6188
aVpac
p6189
aVspeech
p6190
aVurself
p6191
aVleppard
p6192
aVstruggling
p6193
aVpak
p6194
aVwimbledon
p6195
aVselenaxjonas
p6196
aVdestroytwitter
p6197
aVjeffrey
p6198
aVextended
p6199
aVultraman
p6200
aVvictoriazombie
p6201
aVmunch
p6202
aVcompanion
p6203
aVbobbyedner
p6204
aVrunning
p6205
aVclimbing
p6206
aVweava
p6207
aVmeeble
p6208
aVconor
p6209
aVmacro
p6210
aVbang
p6211
aVktjbpa
p6212
aVamazed
p6213
aVwednesdays
p6214
aVoutdoor
p6215
aVmoney
p6216
aVpissing
p6217
aVcrab
p6218
aVasthma
p6219
aVyaaay
p6220
aVpups
p6221
aVasot
p6222
aVperth
p6223
aVbank
p6224
aVpill
p6225
aVmoz
p6226
aVjake
p6227
aVgloom
p6228
aVmos
p6229
aVincome
p6230
aVmow
p6231
aVnando
p6232
aVmom
p6233
aVmob
p6234
aVswatch
p6235
aVaiming
p6236
aVblankets
p6237
aVgrim
p6238
aVmoe
p6239
aVadams
p6240
aVpandas
p6241
aVnose
p6242
aVomgg
p6243
aVpassionate
p6244
aVnoordinarygurl
p6245
aVdoll
p6246
aVtelepopmusik
p6247
aVhahhaha
p6248
aVcdghqp
p6249
aVcancel
p6250
aVimages
p6251
aVtwilightinfo
p6252
aVmatching
p6253
aVgross
p6254
aVouts
p6255
aVellis
p6256
aVdrenched
p6257
aVlotto
p6258
aVoverly
p6259
aVkmu
p6260
aVsorors
p6261
aVmwah
p6262
aVseconds
p6263
aVkyoto
p6264
aVneslekkim
p6265
aVawsome
p6266
aVshittttttt
p6267
aVbroken
p6268
aVandydick
p6269
aVhollychrome
p6270
aVcemiess
p6271
aVgiggle
p6272
aVconducting
p6273
aVtease
p6274
aVbonding
p6275
aVpractical
p6276
aVylizabeth
p6277
aVairline
p6278
aVyouve
p6279
aVthreesome
p6280
aVmarriott
p6281
aVroad
p6282
aVquietly
p6283
aVlands
p6284
aVyyq
p6285
aVcoupon
p6286
aVspreading
p6287
aVblessed
p6288
aVreferences
p6289
aVdreaming
p6290
aVannoys
p6291
aVkourtneykardash
p6292
aVbrentcorrigan
p6293
aVpicoult
p6294
aVrides
p6295
aVmadden
p6296
aVdeadlines
p6297
aVlions
p6298
aVstructure
p6299
aVdaydreamerping
p6300
aVcheechbud
p6301
aVkevinayp
p6302
aVsorreh
p6303
aVdiane
p6304
aVyupp
p6305
aVbuggy
p6306
aVremix
p6307
aVstrikes
p6308
aVcatchin
p6309
aVdownstairs
p6310
aVbelated
p6311
aVspice
p6312
aVprototype
p6313
aVromantic
p6314
aVvhs
p6315
aVkatesherrod
p6316
aVstrawberry
p6317
aVugggh
p6318
aVagora
p6319
aVhongkiat
p6320
aVmanuel
p6321
aVembed
p6322
aVnomadwanderer
p6323
aVthedinnerlady
p6324
aVreplacing
p6325
aVskpp
p6326
aVlint
p6327
aVdeep
p6328
aVfellow
p6329
aVfile
p6330
aVlifetime
p6331
aVdeed
p6332
aVcables
p6333
aVghosts
p6334
aVtedious
p6335
aVrockness
p6336
aVizzard
p6337
aVretiring
p6338
aVkanyon
p6339
aVeffin
p6340
aVmoscow
p6341
aVwantz
p6342
aVweeder
p6343
aVebeth
p6344
aVthousand
p6345
aVweeee
p6346
aVobsessed
p6347
aVdepress
p6348
aVpatphelan
p6349
aVimportant
p6350
aVtackle
p6351
aVsneeze
p6352
aVremote
p6353
aVunload
p6354
aVsicky
p6355
aVtightened
p6356
aVu
aValright
p6357
aVdeluxe
p6358
aVoran
p6359
aVgrowling
p6360
aVliat
p6361
aVbrowserd
p6362
aVforget
p6363
aVjonasbrothers
p6364
aVrascals
p6365
aVallergy
p6366
aVdollar
p6367
aVworms
p6368
aVremeber
p6369
aVsunk
p6370
aVtalks
p6371
aVsung
p6372
aVlrbolton
p6373
aVimma
p6374
aVrrod
p6375
aVkellydivine
p6376
aVopensource
p6377
aVwooooo
p6378
aVenjoying
p6379
aVhellooo
p6380
aVmayday
p6381
aVmornin
p6382
aVpremium
p6383
aVsitting
p6384
aVseikatsu
p6385
aVpowerbook
p6386
aVoverdone
p6387
aVitschristablack
p6388
aVjonnypaula
p6389
aVicann
p6390
aVbestie
p6391
aVbleach
p6392
aVsamsi
p6393
aVdifference
p6394
aVtrippin
p6395
aVgodspeed
p6396
aVhye
p6397
aVmothers
p6398
aVcelebrity
p6399
aVbabyvtec
p6400
aVreminding
p6401
aVproposition
p6402
aVandrewghayes
p6403
aVsayang
p6404
aVdamper
p6405
aVneighborhood
p6406
aVportable
p6407
aVstrung
p6408
aVzero
p6409
aVtitles
p6410
aVsilverstein
p6411
aVlawyer
p6412
aVsleeeeeeeeep
p6413
aVresturant
p6414
aVmaterial
p6415
aVtweeted
p6416
aVusin
p6417
aVabu
p6418
aVhooome
p6419
aVdias
p6420
aVmmmbaileys
p6421
aVdodged
p6422
aVranger
p6423
aVjonas
p6424
aVgeekery
p6425
aVizzyj
p6426
aVstandard
p6427
aVcreolepatra
p6428
aVchipped
p6429
aVbible
p6430
aVstretching
p6431
aVlikin
p6432
aVjackie
p6433
aVsofas
p6434
aVairport
p6435
aVlasagna
p6436
aVpublished
p6437
aVstormin
p6438
aVamykay
p6439
aVpervetastic
p6440
aVandyclemmensen
p6441
aVbuses
p6442
aVafrica
p6443
aVmunchkin
p6444
aVechsizzles
p6445
aVbruins
p6446
aVwestonsupermum
p6447
aVeye
p6448
aVnothings
p6449
aVwiped
p6450
aVdeepbluesealove
p6451
aVpuke
p6452
aVdamaged
p6453
aVomgggg
p6454
aVginobili
p6455
aVjive
p6456
aVgaah
p6457
aVwiper
p6458
aVamaing
p6459
aVlilbsuremusic
p6460
aVleonard
p6461
aVlanded
p6462
aVcustardcuppcake
p6463
aVboredd
p6464
aVyouuuuu
p6465
aVoubad
p6466
aVtaub
p6467
aVnone
p6468
aVhour
p6469
aVgeorgina
p6470
aVrecall
p6471
aVthereal
p6472
aVdes
p6473
aVsucks
p6474
aVdev
p6475
aVdew
p6476
aVremain
p6477
aVden
p6478
aVabandon
p6479
aVdeb
p6480
aVdec
p6481
aVdeg
p6482
aVshark
p6483
aVgalleries
p6484
aVshare
p6485
aVconfirmation
p6486
aVpurchased
p6487
aVlitres
p6488
aVrobinson
p6489
aVughhhh
p6490
aVryn
p6491
aVneeds
p6492
aVobnoxious
p6493
aVcsi
p6494
aVfaceman
p6495
aVcsk
p6496
aVneeda
p6497
aVsacred
p6498
aVcivilisation
p6499
aVticketluck
p6500
aVbags
p6501
aVmeganbalder
p6502
aVadvice
p6503
aVyougotmichelle
p6504
aVresponse
p6505
aVpav
p6506
aVtweeting
p6507
aVrooting
p6508
aVdragon
p6509
aVdeserted
p6510
aVsecs
p6511
aVfelicity
p6512
aVyipee
p6513
aVpleasure
p6514
aVpmelt
p6515
aVliasta
p6516
aVceres
p6517
aVwudnt
p6518
aVswamped
p6519
aVwolverhampton
p6520
aVpartypleaser
p6521
aVfilters
p6522
aVsmartestgames
p6523
aVexistence
p6524
aVbizkit
p6525
aVgolfing
p6526
aVmessed
p6527
aVtemposhark
p6528
aVpens
p6529
aVrender
p6530
aVthnx
p6531
aVlate
p6532
aVthinning
p6533
aVlata
p6534
aVpenn
p6535
aVhurting
p6536
aVgood
p6537
aVseeking
p6538
aVencouraging
p6539
aVwalls
p6540
aVoxford
p6541
aViranians
p6542
aVrinintantya
p6543
aVcomplain
p6544
aVmystery
p6545
aVgirlies
p6546
aVrobbie
p6547
aVrant
p6548
aVsuprise
p6549
aVdrake
p6550
aVasher
p6551
aVmicro
p6552
aVpan
p6553
aVkirkfranklin
p6554
aVports
p6555
aVrhys
p6556
aVeveryone
p6557
aVcallum
p6558
aVanother
p6559
aVexhaust
p6560
aVhouse
p6561
aVenergy
p6562
aVhard
p6563
aVtoooooo
p6564
aVahahha
p6565
aVrascalflatts
p6566
aVportland
p6567
aVinsurance
p6568
aVrespectful
p6569
aVrobertcjenkin
p6570
aVballin
p6571
aVsickness
p6572
aVnavjotpawera
p6573
aVacting
p6574
aVqueenofscots
p6575
aVbrewers
p6576
aVcyclone
p6577
aVnancerellababy
p6578
aVvoss
p6579
aVpathetic
p6580
aVbeyotch
p6581
aVcockroach
p6582
aVbulls
p6583
aVmmm
p6584
aVdifficulty
p6585
aVgiveaway
p6586
aVbacked
p6587
aVhermes
p6588
aVtwitterness
p6589
aVboomboxhearts
p6590
aVneeding
p6591
aVwhitsundays
p6592
aVranieka
p6593
aVclaudia
p6594
aVdont
p6595
aVmistakenly
p6596
aVnelpix
p6597
aVknooow
p6598
aVdone
p6599
aVkerchoonz
p6600
aVbullied
p6601
aVrazor
p6602
aVkillin
p6603
aVkol
p6604
aVjamba
p6605
aVtrvsbrkr
p6606
aVpaint
p6607
aVimageshack
p6608
aVpains
p6609
aVdraper
p6610
aVlifeisgood
p6611
aVdentist
p6612
aVmissykesson
p6613
aVdoctors
p6614
aVqld
p6615
aVbelieve
p6616
aVcarnage
p6617
aVwoops
p6618
aVmclaughlin
p6619
aVb
aVcompliments
p6620
aVhorizons
p6621
aVgotten
p6622
aVraraactive
p6623
aVlooooooong
p6624
aVsupposed
p6625
aVinsightful
p6626
aVdebugging
p6627
aVzz
p6628
aVcurtains
p6629
aVranru
p6630
aVruchirfalodiya
p6631
aVscandinavians
p6632
aVcept
p6633
aVahahah
p6634
aVshowers
p6635
aVmountain
p6636
aVbuilt
p6637
aVtwitters
p6638
aVclick
p6639
aVbuild
p6640
aVflicks
p6641
aVcommentary
p6642
aVwaitin
p6643
aVmikebailey
p6644
aVfluffymuppet
p6645
aVserena
p6646
aVbyeee
p6647
aVserve
p6648
aVeggs
p6649
aVflute
p6650
aVchart
p6651
aVserviced
p6652
aVstaceylovesdw
p6653
aVcharm
p6654
aVrejected
p6655
aValrdy
p6656
aVcompy
p6657
aVxxjulia
p6658
aVcassiefx
p6659
aVkiddies
p6660
aVbarackobama
p6661
aVkc
p6662
aVka
p6663
aVkk
p6664
aVkh
p6665
aVko
p6666
aVkl
p6667
aVks
p6668
aVwhatswithinu
p6669
aVkq
p6670
aVorganise
p6671
aVkv
p6672
aVkt
p6673
aVky
p6674
aVparody
p6675
aVjoining
p6676
aVthomas
p6677
aVchanel
p6678
aVfink
p6679
aVbusinesses
p6680
aVcarefully
p6681
aVjared
p6682
aVfine
p6683
aVfind
p6684
aVchoco
p6685
aVgiant
p6686
aVnervous
p6687
aVruin
p6688
aVunhappy
p6689
aVidiots
p6690
aVilaurenstevens
p6691
aVmerged
p6692
aVtouchscreen
p6693
aVexpress
p6694
aVcheaper
p6695
aVestrella
p6696
aVsuzie
p6697
aVsill
p6698
aVblogging
p6699
aVmotorcycles
p6700
aVpeterman
p6701
aVremove
p6702
aVcommon
p6703
aVmouthwash
p6704
aVitsjoejonas
p6705
aVfreeking
p6706
aVmacmuso
p6707
aVindividual
p6708
aVleslie
p6709
aVwhyyy
p6710
aVlisbon
p6711
aVtyarawis
p6712
aVretweet
p6713
aVrepairs
p6714
aVexpert
p6715
aVpositivity
p6716
aVplease
p6717
aVjobro
p6718
aVsinuses
p6719
aVburned
p6720
aVpisses
p6721
aVsharpies
p6722
aVclueless
p6723
aVstaaceeyy
p6724
aVmarilyn
p6725
aVpissed
p6726
aVbrillant
p6727
aVfolding
p6728
aVdangit
p6729
aVforeign
p6730
aVmcdonald
p6731
aViamjonathancook
p6732
aVtherealjordin
p6733
aVfocused
p6734
aVeshema
p6735
aVsitharus
p6736
aVupgraded
p6737
aVjwhof
p6738
aVcakes
p6739
aVdanced
p6740
aVpoint
p6741
aVsimple
p6742
aVdonkey
p6743
aVribbit
p6744
aVjerks
p6745
aVdances
p6746
aVunsuccessful
p6747
aVgavin
p6748
aVexpensive
p6749
aVheadaches
p6750
aVplatinum
p6751
aVhillsong
p6752
aVsukickwong
p6753
aVcreate
p6754
aVpanera
p6755
aVmikey
p6756
aVsecret
p6757
aVireland
p6758
aVportraits
p6759
aVjtothe
p6760
aVpresale
p6761
aVkuya
p6762
aVgas
p6763
aVgap
p6764
aVunderstand
p6765
aVgah
p6766
aVgad
p6767
aVchatter
p6768
aVhearin
p6769
aVstrictest
p6770
aVkeven
p6771
aVpembrokedave
p6772
aVtiered
p6773
aVsobs
p6774
aVfun
p6775
aVfuh
p6776
aVindulging
p6777
aVghacksg
p6778
aVcents
p6779
aVmystic
p6780
aVhuddlesuz
p6781
aVbummy
p6782
aVcalender
p6783
aVtwatting
p6784
aVmadderdin
p6785
aVtryingtimes
p6786
aVaches
p6787
aVitaly
p6788
aVsukiebunny
p6789
aVmigraine
p6790
aVtorts
p6791
aVachey
p6792
aVbutcher
p6793
aVxolaurencexo
p6794
aVruth
p6795
aVeww
p6796
aVtracyedukes
p6797
aVdhabi
p6798
aVdeepxp
p6799
aVvalagnew
p6800
aVitch
p6801
aVpraising
p6802
aVassignment
p6803
aVyesterday
p6804
aVmoment
p6805
aVsantorini
p6806
aVhows
p6807
aVjbs
p6808
aVwitenike
p6809
aVspent
p6810
aVmorrow
p6811
aVwithdraw
p6812
aVswiss
p6813
aVsassisam
p6814
aVsulking
p6815
aVeverythin
p6816
aVbuell
p6817
aVjchutchins
p6818
aVwhitneyeve
p6819
aVcurlydena
p6820
aVlibs
p6821
aVshape
p6822
aVthorough
p6823
aVktsummer
p6824
aVtalindab
p6825
aVcus
p6826
aVdslr
p6827
aVcup
p6828
aVdisappointed
p6829
aVspills
p6830
aVcuz
p6831
aVdixon
p6832
aVhomies
p6833
aVsnap
p6834
aVbridal
p6835
aVmavs
p6836
aVeaster
p6837
aVexcited
p6838
aVhates
p6839
aVhater
p6840
aVbin
p6841
aVmanage
p6842
aVbig
p6843
aVsquashing
p6844
aVbia
p6845
aVtruely
p6846
aVfuckcity
p6847
aVpaulbtucker
p6848
aVbit
p6849
aVblech
p6850
aVreals
p6851
aVadamcurry
p6852
aVjimmymarsh
p6853
aVkevinmcdaid
p6854
aVkemalispirli
p6855
aVtapauing
p6856
aVfollows
p6857
aVdisks
p6858
aVbahar
p6859
aVhoovering
p6860
aVfoolish
p6861
aVgardening
p6862
aVoften
p6863
aVabsolutely
p6864
aVback
p6865
aVmcflymusic
p6866
aVhandjob
p6867
aVmartial
p6868
aVpricing
p6869
aVmirror
p6870
aVfacks
p6871
aVlightning
p6872
aVpronounced
p6873
aVscale
p6874
aVjewelry
p6875
aVcontacts
p6876
aVpet
p6877
aVsugarland
p6878
aVper
p6879
aVconnecting
p6880
aVpee
p6881
aVsaab
p6882
aVlaughing
p6883
aVamazin
p6884
aValhamdulilah
p6885
aVcrispies
p6886
aVufc
p6887
aVhahahahaha
p6888
aVgfalcone
p6889
aVwellreadkitty
p6890
aVhilbert
p6891
aVmorra
p6892
aVgoods
p6893
aVbakar
p6894
aVyehh
p6895
aVdelish
p6896
aVgraduation
p6897
aVbisa
p6898
aVjimmy
p6899
aVtiff
p6900
aVliquidweb
p6901
aVmurrrr
p6902
aVphase
p6903
aVlesson
p6904
aVdownhill
p6905
aVcalming
p6906
aVjamesheart
p6907
aVglos
p6908
aVdaibarnes
p6909
aVinfected
p6910
aVgermans
p6911
aVhomemade
p6912
aVnickolaswheeler
p6913
aVforward
p6914
aVfer
p6915
aVbored
p6916
aVgettn
p6917
aVinvite
p6918
aVandrewfreels
p6919
aVmotivational
p6920
aVtoooo
p6921
aVhoped
p6922
aVboys
p6923
aVyesssss
p6924
aVconcepcion
p6925
aVjfqu
p6926
aVplaned
p6927
aVbritt
p6928
aVandroidtomato
p6929
aVjonathan
p6930
aVjonmclaughlin
p6931
aVoriginals
p6932
aVknitcave
p6933
aVofficialtl
p6934
aVgroove
p6935
aVunits
p6936
aVgeese
p6937
aVgeesh
p6938
aVtraceyhewins
p6939
aVspoonfuls
p6940
aVcure
p6941
aVcurl
p6942
aVcafe
p6943
aVprevail
p6944
aVofficialashleyg
p6945
aVbubblegum
p6946
aVthinks
p6947
aVkilamarie
p6948
aVfunctionality
p6949
aVtweople
p6950
aVkira
p6951
aVplasmaegg
p6952
aVlene
p6953
aVlend
p6954
aVfavourite
p6955
aVleno
p6956
aVnatashajonasx
p6957
aVutterly
p6958
aVlent
p6959
aVfishes
p6960
aVhanson
p6961
aVuhhhhh
p6962
aVscouting
p6963
aVmaldives
p6964
aVvehicles
p6965
aVjannybeans
p6966
aVcooked
p6967
aVfiled
p6968
aVpresenting
p6969
aVthechrisd
p6970
aVfailures
p6971
aVstroller
p6972
aVrinse
p6973
aVjason
p6974
aVrabbit
p6975
aVrestraining
p6976
aVrecount
p6977
aVjamescash
p6978
aVstrep
p6979
aVzedascouves
p6980
aVhairpins
p6981
aVellie
p6982
aVmower
p6983
aVmaddie
p6984
aVhelps
p6985
aVkazzc
p6986
aVfatal
p6987
aVmibbit
p6988
aVxxxxxxxx
p6989
aVophelia
p6990
aVhappyy
p6991
aVlfta
p6992
aVlooooove
p6993
aVentire
p6994
aVanotha
p6995
aValesa
p6996
aVjoel
p6997
aVlivejournal
p6998
aVliamhemsworth
p6999
aVbusier
p7000
aVhackintosh
p7001
aVhavent
p7002
aVstevehealy
p7003
aVjoey
p7004
aVbleeding
p7005
aVcarly
p7006
aVyfrog
p7007
aVuncomfortable
p7008
aVelise
p7009
aVmarkhoppus
p7010
aVsonogram
p7011
aVchicago
p7012
aVgotdhistory
p7013
aVpractices
p7014
aVlovelywings
p7015
aVbahahaha
p7016
aVbody
p7017
aVgot
p7018
aVthedebbyryan
p7019
aVabakhan
p7020
aViranelection
p7021
aVluis
p7022
aVbrianangelday
p7023
aVdrobo
p7024
aVhonor
p7025
aVnamed
p7026
aVeengc
p7027
aVblizzard
p7028
aVocd
p7029
aVgordon
p7030
aVnames
p7031
aVcrimson
p7032
aVscandal
p7033
aVcloudforce
p7034
aVgateway
p7035
aVsermon
p7036
aVbethy
p7037
aVche
p7038
aVwetaworkshop
p7039
aVbreakup
p7040
aVchk
p7041
aVdebbie
p7042
aVsentosa
p7043
aVoils
p7044
aViis
p7045
aVusha
p7046
aVandysambergsnl
p7047
aVdripping
p7048
aVashamed
p7049
aViin
p7050
aVsubscription
p7051
aVaccount
p7052
aVeveryoneee
p7053
aVf
aVstephenkruiser
p7054
aVclosing
p7055
aVdidnt
p7056
aVtarantino
p7057
aVjoelmadden
p7058
aVlechantdoiseau
p7059
aVawesomee
p7060
aVeffectively
p7061
aVtashatwilight
p7062
aVawesomer
p7063
aVpsyched
p7064
aVlama
p7065
aVdemocracy
p7066
aVlame
p7067
aVboxing
p7068
aVhampshire
p7069
aVfete
p7070
aVwinners
p7071
aVforest
p7072
aVhmwk
p7073
aVcanfield
p7074
aVbuildings
p7075
aVrailings
p7076
aVsummers
p7077
aVfran
p7078
aVwaters
p7079
aVinsl
p7080
aVcollection
p7081
aVbothered
p7082
aVphysio
p7083
aVcardinals
p7084
aVstephangeyer
p7085
aVeskimojoelted
p7086
aVwildpeeta
p7087
aVbombers
p7088
aVchasing
p7089
aVtethering
p7090
aVbing
p7091
aVlines
p7092
aVincessant
p7093
aVlaurie
p7094
aVfurious
p7095
aVaddiction
p7096
aVdespite
p7097
aVscotsmanstuart
p7098
aVsymphnysldr
p7099
aVpoetry
p7100
aVaustrian
p7101
aVhorny
p7102
aVgreyeyes
p7103
aVlf
p7104
aVlg
p7105
aVld
p7106
aVlb
p7107
aVlc
p7108
aVbridget
p7109
aVla
p7110
aVlo
p7111
aVll
p7112
aVlm
p7113
aVwinning
p7114
aVkindergarten
p7115
aVlw
p7116
aVwilling
p7117
aVmarsh
p7118
aVminissha
p7119
aVlatitude
p7120
aVintrested
p7121
aVlz
p7122
aVsstar
p7123
aVly
p7124
aVdad
p7125
aVelitist
p7126
aVgreater
p7127
aVdam
p7128
aVdan
p7129
aVspell
p7130
aVdai
p7131
aVdaw
p7132
aVtickles
p7133
aVmetrostation
p7134
aVkindness
p7135
aVday
p7136
aVsazchik
p7137
aVbabilorentz
p7138
aVtues
p7139
aVcouldve
p7140
aVslipping
p7141
aVhyperisland
p7142
aVwilde
p7143
aVrowing
p7144
aVkriti
p7145
aVflossin
p7146
aVbueno
p7147
aVjones
p7148
aVpitty
p7149
aVparties
p7150
aVitstartswithus
p7151
aVsweatshirt
p7152
aVprogrammes
p7153
aVmarley
p7154
aVpopping
p7155
aVres
p7156
aVcwk
p7157
aVmate
p7158
aVmessenger
p7159
aVstud
p7160
aVlecture
p7161
aVelectronics
p7162
aVpurplish
p7163
aVreg
p7164
aVred
p7165
aVdissapeared
p7166
aVjessica
p7167
aVquy
p7168
aVclarify
p7169
aVapproaches
p7170
aVqui
p7171
aVdorkabella
p7172
aVgregular
p7173
aVcured
p7174
aVexplanations
p7175
aVqualification
p7176
aVtracecyrus
p7177
aVretail
p7178
aVsouth
p7179
aVmmkor
p7180
aVjizzle
p7181
aVbamf
p7182
aVjustine
p7183
aVsach
p7184
aVphiladelphia
p7185
aVwhoop
p7186
aVbraces
p7187
aVaidenpappas
p7188
aVpukey
p7189
aVsadly
p7190
aVmonkey
p7191
aVvulgar
p7192
aVpots
p7193
aVshanna
p7194
aVmessing
p7195
aVliquor
p7196
aVcabin
p7197
aVgreermcdonald
p7198
aVgear
p7199
aVnobody
p7200
aVdreary
p7201
aVgsoc
p7202
aVblazers
p7203
aVudh
p7204
aVlovee
p7205
aVloved
p7206
aVslack
p7207
aVmarawitch
p7208
aVloves
p7209
aVvisited
p7210
aVimpala
p7211
aVinlove
p7212
aVamorevivo
p7213
aVwakes
p7214
aVatchoo
p7215
aVlayton
p7216
aVtide
p7217
aVkirstenin
p7218
aVthroat
p7219
aVtravisgarland
p7220
aVhandsets
p7221
aVtemplate
p7222
aVdicklet
p7223
aVmil
p7224
aVmin
p7225
aVmid
p7226
aVparks
p7227
aVmix
p7228
aVkyte
p7229
aVswagbucks
p7230
aVmir
p7231
aVwaaaaay
p7232
aValton
p7233
aVtezzer
p7234
aVskopje
p7235
aVdiigo
p7236
aVkitkat
p7237
aVhandbag
p7238
aVamalinaaa
p7239
aVtranscript
p7240
aVpayment
p7241
aVgurus
p7242
aVnickjonas
p7243
aVrequest
p7244
aVgraphs
p7245
aVkelsie
p7246
aVchicogarcia
p7247
aVdocbaty
p7248
aVtwittercounter
p7249
aVsnuffly
p7250
aVgeobart
p7251
aVselection
p7252
aVkite
p7253
aVcaved
p7254
aVcharles
p7255
aVliddell
p7256
aVsupporter
p7257
aVstaff
p7258
aVvelociraptor
p7259
aVsxephil
p7260
aVcoloring
p7261
aVsuzeormanshow
p7262
aVdrobopro
p7263
aVcolbert
p7264
aVheathershea
p7265
aVamazingg
p7266
aVthaprincet
p7267
aVohsweetnibblets
p7268
aVakes
p7269
aVexceptional
p7270
aVphotography
p7271
aVgoodmornin
p7272
aVbear
p7273
aVpetewentz
p7274
aVtiming
p7275
aVcepat
p7276
aVcourtcosmetics
p7277
aVfixes
p7278
aVteams
p7279
aVblogspot
p7280
aVmascara
p7281
aVfixed
p7282
aVuntrue
p7283
aVmrtrev
p7284
aVexists
p7285
aVhuuuurts
p7286
aVgroggy
p7287
aVaccord
p7288
aVgreece
p7289
aVxxxxx
p7290
aVawaits
p7291
aVattempting
p7292
aVcharispalmer
p7293
aVswiney
p7294
aVbadges
p7295
aVthrillhasgone
p7296
aVbloomsday
p7297
aVjanet
p7298
aVsorrow
p7299
aVfacepalm
p7300
aVdeliver
p7301
aVtarayqueen
p7302
aVselena
p7303
aVlegit
p7304
aVtweetup
p7305
aVtoothbrush
p7306
aVinstant
p7307
aVlulus
p7308
aVtrips
p7309
aVbusted
p7310
aVdryers
p7311
aVconquered
p7312
aVswallow
p7313
aVcomment
p7314
aVwnci
p7315
aVnikkiboop
p7316
aVdenim
p7317
aVreborn
p7318
aVarghh
p7319
aVangkoso
p7320
aVlaugh
p7321
aVenibeni
p7322
aVmafia
p7323
aVearning
p7324
aVjoesoliman
p7325
aVpouring
p7326
aVimajicart
p7327
aVgoodwindup
p7328
aVnewscast
p7329
aVwy
p7330
aVmaryland
p7331
aVcurtain
p7332
aVproposal
p7333
aVkitchen
p7334
aVaubrey
p7335
aVreceived
p7336
aVairplanes
p7337
aVclimate
p7338
aVridden
p7339
aVcaitdaviesuk
p7340
aVlauraechilds
p7341
aVsausages
p7342
aVjesskarrr
p7343
aVassessments
p7344
aVbustyrockets
p7345
aVhotties
p7346
aVhomes
p7347
aVplaid
p7348
aVwelcoming
p7349
aVplain
p7350
aVwidescreen
p7351
aVappearance
p7352
aVrevisited
p7353
aVfrustrating
p7354
aVtascawinebar
p7355
aValmost
p7356
aVsquid
p7357
aVlinkedin
p7358
aVreadin
p7359
aVarabic
p7360
aVorals
p7361
aVproductivity
p7362
aVplayers
p7363
aVadministration
p7364
aVfoxy
p7365
aVpiles
p7366
aVshuttle
p7367
aVjonathanrhys
p7368
aVfrnds
p7369
aVgamer
p7370
aVinjured
p7371
aVhon
p7372
aVnovels
p7373
aViow
p7374
aVoperaunite
p7375
aVsauna
p7376
aVion
p7377
aVoranges
p7378
aVfucked
p7379
aVthekeithchegwin
p7380
aVsunburn
p7381
aVshitting
p7382
aVretard
p7383
aVdisappears
p7384
aVsmashingmag
p7385
aVheatherhll
p7386
aVholnap
p7387
aVenglund
p7388
aVdjayshazam
p7389
aVoops
p7390
aVgooodnight
p7391
aVshawnlovejoy
p7392
aVfrenchiesforum
p7393
aVlozzie
p7394
aVhmmph
p7395
aVkomplettie
p7396
aVcoaster
p7397
aVnicknames
p7398
aVproximity
p7399
aVexecutive
p7400
aVtone
p7401
aVwether
p7402
aVepiphone
p7403
aVads
p7404
aVwinchester
p7405
aVbench
p7406
aVadd
p7407
aVcitizen
p7408
aVohhh
p7409
aVmatch
p7410
aVwining
p7411
aVthankies
p7412
aVtests
p7413
aVfyi
p7414
aVcitymommyslc
p7415
aVdryer
p7416
aVdeployment
p7417
aVyokoono
p7418
aVrogthedodge
p7419
aVlike
p7420
aVsuccess
p7421
aVvibrant
p7422
aVitxi
p7423
aVsar
p7424
aVjournalist
p7425
aVjuliewunder
p7426
aVtuggerah
p7427
aVworks
p7428
aVchico
p7429
aVheel
p7430
aVclassical
p7431
aVhain
p7432
aValive
p7433
aVstuffs
p7434
aVproper
p7435
aVemilylagrange
p7436
aVstuffy
p7437
aVwhyyyyyyyy
p7438
aVhappens
p7439
aVtmr
p7440
aVest
p7441
aVess
p7442
aVfoosball
p7443
aVprincessq
p7444
aVesx
p7445
aVlizcable
p7446
aVscrewed
p7447
aVesl
p7448
aVchains
p7449
aVgrrr
p7450
aVrwaneesa
p7451
aVslight
p7452
aVmaddiekelly
p7453
aVnathanm
p7454
aVgamebattles
p7455
aVhost
p7456
aVhosp
p7457
aVdhani
p7458
aVsnapped
p7459
aVdeasaurr
p7460
aVinconsiderate
p7461
aVscarletjac
p7462
aVsparky
p7463
aVmarlenestringer
p7464
aVlegendary
p7465
aVandreatunes
p7466
aVlouisville
p7467
aVflaky
p7468
aVblessings
p7469
aVxoxoxoxo
p7470
aVpowerpoint
p7471
aVchildrens
p7472
aVdepart
p7473
aVeverrrr
p7474
aVjohnpeel
p7475
aVsocks
p7476
aVchris
p7477
aVplayoff
p7478
aVdoesnt
p7479
aVfemale
p7480
aVkjarrett
p7481
aVwack
p7482
aVlegends
p7483
aVrushed
p7484
aVvegetables
p7485
aVyeshhh
p7486
aVbigcat
p7487
aVburning
p7488
aVfidelity
p7489
aVbgt
p7490
aVbuy
p7491
aVrecamel
p7492
aVchatting
p7493
aVbus
p7494
aVbrand
p7495
aVsequel
p7496
aVkeyerror
p7497
aVbuu
p7498
aVrepeated
p7499
aVtwitgoo
p7500
aVediting
p7501
aVmemphis
p7502
aVbug
p7503
aVbud
p7504
aVpartially
p7505
aVprinces
p7506
aVglory
p7507
aVwish
p7508
aVj
aVkataylor
p7509
aVulovelace
p7510
aVdrunkenmonkey
p7511
aVminutes
p7512
aVsupreme
p7513
aVreesies
p7514
aVbrochures
p7515
aVinternals
p7516
aVpig
p7517
aVpix
p7518
aVshandreen
p7519
aVshooting
p7520
aVproceeds
p7521
aVldensunsett
p7522
aVfanclub
p7523
aVcashew
p7524
aVoak
p7525
aVflys
p7526
aVmnths
p7527
aVhotstreak
p7528
aVshouldve
p7529
aVsickk
p7530
aVawwwwwww
p7531
aVfischi
p7532
aVoriginal
p7533
aVtweetfakes
p7534
aVevrybdy
p7535
aVhatz
p7536
aVhats
p7537
aVsuckss
p7538
aVsleep
p7539
aVhating
p7540
aVshazam
p7541
aVhate
p7542
aVherojaejoong
p7543
aVpoorly
p7544
aVfeeding
p7545
aVparis
p7546
aVtweet
p7547
aVttyl
p7548
aVtweep
p7549
aVmwa
p7550
aVoneloneknight
p7551
aVmwj
p7552
aVnoisy
p7553
aVpride
p7554
aVgirrrl
p7555
aVregrets
p7556
aVmikeyy
p7557
aVrisk
p7558
aVrise
p7559
aVlololol
p7560
aVjack
p7561
aVkick
p7562
aVdwts
p7563
aVninamcfly
p7564
aVmonkeys
p7565
aVencounter
p7566
aVschool
p7567
aVmadbrad
p7568
aVparrot
p7569
aVhumph
p7570
aVobsessive
p7571
aVkristinallund
p7572
aVenjoy
p7573
aVleaders
p7574
aVnetbeans
p7575
aVnait
p7576
aVconsistent
p7577
aVfrosted
p7578
aVkiva
p7579
aVnail
p7580
aVfabulous
p7581
aVestimated
p7582
aVpinwingirl
p7583
aVshining
p7584
aVworsee
p7585
aVpantyhoseslut
p7586
aVruben
p7587
aVfabianski
p7588
aVliberty
p7589
aVyankeegirl
p7590
aVfall
p7591
aVcimarslover
p7592
aVdisney
p7593
aVwondermark
p7594
aVkicked
p7595
aVzack
p7596
aVzach
p7597
aVwoozy
p7598
aVhundreds
p7599
aVstudio
p7600
aVsmokin
p7601
aVhumility
p7602
aVgudluck
p7603
aVaftermath
p7604
aVmozzarella
p7605
aVluggage
p7606
aVventures
p7607
aVleaves
p7608
aVjogging
p7609
aVmentor
p7610
aVchanges
p7611
aVpunishment
p7612
aVprints
p7613
aVfigure
p7614
aVbennylicious
p7615
aVjulie
p7616
aVdwighthoward
p7617
aVstrap
p7618
aVpatience
p7619
aVbthequeen
p7620
aVmichalabanas
p7621
aVwould
p7622
aVhospital
p7623
aVboooring
p7624
aVasses
p7625
aVspike
p7626
aVchewing
p7627
aVpreview
p7628
aVslaughtered
p7629
aVbreathe
p7630
aVreplys
p7631
aVstonermc
p7632
aVmusa
p7633
aVti
p7634
aVhyvesredesign
p7635
aVmuse
p7636
aVgrief
p7637
aVphone
p7638
aVconnecticut
p7639
aVexcellent
p7640
aVvpn
p7641
aVoutdated
p7642
aVtonsillitis
p7643
aVmg
p7644
aVhutch
p7645
aVjoin
p7646
aVmm
p7647
aVmidwest
p7648
aVmh
p7649
aVmw
p7650
aVinstall
p7651
aVmr
p7652
aVshesirawr
p7653
aVcarmen
p7654
aVaddictive
p7655
aVmayhem
p7656
aVserenity
p7657
aVastridegeland
p7658
aVceremony
p7659
aVend
p7660
aVbung
p7661
aVbunk
p7662
aVreturning
p7663
aVstint
p7664
aVttfn
p7665
aVbuns
p7666
aVdrummer
p7667
aVent
p7668
aVaching
p7669
aVthatswhack
p7670
aVgate
p7671
aVeastlake
p7672
aVcharging
p7673
aVeyeballs
p7674
aVbadly
p7675
aVhoroscope
p7676
aVmess
p7677
aVlump
p7678
aVmmmmmmmmmm
p7679
aVwhining
p7680
aVtidying
p7681
aVmesa
p7682
aVsuspected
p7683
aVsuperbad
p7684
aVdanny
p7685
aVcolumbia
p7686
aVloader
p7687
aVtreespotter
p7688
aVpurry
p7689
aVfunniest
p7690
aVultimate
p7691
aVsuerte
p7692
aVplumbing
p7693
aVharlem
p7694
aVoysters
p7695
aVnaman
p7696
aVgerardway
p7697
aVpcornqueen
p7698
aVsickly
p7699
aVlondon
p7700
aVsaifsiddiqui
p7701
aVima
p7702
aVbeside
p7703
aVimg
p7704
aVhowdy
p7705
aVimo
p7706
aVdestroyed
p7707
aVcantu
p7708
aVfade
p7709
aVimy
p7710
aVlyke
p7711
aViowa
p7712
aVglastonbury
p7713
aVconfuse
p7714
aVbouts
p7715
aVstephscoo
p7716
aVbadge
p7717
aVhiring
p7718
aVmichatagana
p7719
aVkrispykreme
p7720
aVrental
p7721
aVwholefoods
p7722
aVzzeba
p7723
aVstinking
p7724
aVnetherlands
p7725
aValex
p7726
aVpbs
p7727
aVexocetau
p7728
aVbumptop
p7729
aVchuck
p7730
aVdetroit
p7731
aVexplode
p7732
aVnewport
p7733
aVfitness
p7734
aVinkatlinspahnts
p7735
aVgprs
p7736
aVxkayteebear
p7737
aVworded
p7738
aViamlols
p7739
aVcelebrating
p7740
aVmagnets
p7741
aVqueenbxoxo
p7742
aVsaturday
p7743
aVrevisions
p7744
aVgol
p7745
aVdriving
p7746
aVgod
p7747
aVlaid
p7748
aVajm
p7749
aVnite
p7750
aVaja
p7751
aVarizona
p7752
aVfren
p7753
aVsandimon
p7754
aVeternal
p7755
aVfree
p7756
aVfrey
p7757
aVicky
p7758
aVevil
p7759
aVwanted
p7760
aVdayy
p7761
aVoutfits
p7762
aVsoda
p7763
aVcooperating
p7764
aVpleaase
p7765
aValready
p7766
aVmcflyandjb
p7767
aVnhl
p7768
aVlivetolovemcfly
p7769
aVprimary
p7770
aVhearing
p7771
aVbarcamphanoi
p7772
aVnhs
p7773
aVcalorie
p7774
aVloaded
p7775
aVtoy
p7776
aVtop
p7777
aVquotable
p7778
aVtow
p7779
aVeuphoria
p7780
aVtoh
p7781
aVrockin
p7782
aVkewl
p7783
aVtoe
p7784
aVdarned
p7785
aVmurder
p7786
aVzozotheterrible
p7787
aVtoon
p7788
aVleaking
p7789
aVtook
p7790
aVandreamyers
p7791
aVjayce
p7792
aVankle
p7793
aVwardrobe
p7794
aVabandoning
p7795
aVdoang
p7796
aVshortyyyy
p7797
aVbloated
p7798
aVclasses
p7799
aVexpo
p7800
aVindiavotes
p7801
aVprone
p7802
aVrad
p7803
aVrae
p7804
aVrac
p7805
aVzombiefarmer
p7806
aVran
p7807
aVtalking
p7808
aVmandahoofs
p7809
aVcudlitz
p7810
aVmaxmarkson
p7811
aVlunchtime
p7812
aVseminar
p7813
aVrelatively
p7814
aVomgomgomgomg
p7815
aVnipples
p7816
aVtiredddd
p7817
aVsnow
p7818
aVsnot
p7819
aVbrandon
p7820
aVgreta
p7821
aVcotillion
p7822
aVsnoo
p7823
aVlaughed
p7824
aVsnob
p7825
aVyucky
p7826
aVrider
p7827
aVcookout
p7828
aVmadayar
p7829
aVthough
p7830
aVglands
p7831
aVmichala
p7832
aVaudition
p7833
aVloquita
p7834
aVplenty
p7835
aVsmooches
p7836
aVbsg
p7837
aVjean
p7838
aVbsb
p7839
aVglow
p7840
aVrogers
p7841
aVelizaclaire
p7842
aVdevastating
p7843
aVmetal
p7844
aVyang
p7845
aVdads
p7846
aVpineapple
p7847
aVentertaining
p7848
aVyani
p7849
aVqueen
p7850
aVpuppaz
p7851
aVcaffeine
p7852
aVradio
p7853
aVbaii
p7854
aVchewed
p7855
aVjuly
p7856
aVreruns
p7857
aVsituations
p7858
aVminnesota
p7859
aVknuckle
p7860
aVsnickers
p7861
aVescakid
p7862
aVchipotle
p7863
aVkaytasticc
p7864
aVsnippybitch
p7865
aVgeez
p7866
aVmixture
p7867
aVfoucaultgroupie
p7868
aVwatch
p7869
aVblinking
p7870
aVgeek
p7871
aVemilyosment
p7872
aVreport
p7873
aVaang
p7874
aVreinstall
p7875
aVmaialideth
p7876
aVgoodbyes
p7877
aVtranslating
p7878
aVanxiously
p7879
aVvlog
p7880
aVwhelming
p7881
aVdeathrun
p7882
aVruins
p7883
aVfarrhad
p7884
aVreported
p7885
aVcalamityk
p7886
aVrecieve
p7887
aVsubmitted
p7888
aVrobby
p7889
aVdisturbing
p7890
aVveronicas
p7891
aVcapacity
p7892
aVgrandmother
p7893
aVmud
p7894
aVhoedown
p7895
aVfinger
p7896
aVhopefully
p7897
aVmum
p7898
aVbibliopet
p7899
aVdiscovery
p7900
aVsections
p7901
aVnewb
p7902
aVboss
p7903
aVnightmares
p7904
aVfugly
p7905
aVsczepanski
p7906
aVbbutton
p7907
aVcensorship
p7908
aVdedication
p7909
aVgiggity
p7910
aVblasted
p7911
aVimprove
p7912
aVprotect
p7913
aVfault
p7914
aVelb
p7915
aVspurs
p7916
aVluvnewkids
p7917
aVsharybobbins
p7918
aVjello
p7919
aVnaks
p7920
aVbetting
p7921
aVhellmuth
p7922
aVkaren
p7923
aVviruses
p7924
aVtowels
p7925
aVggl
p7926
aVyday
p7927
aVjanuarycrimson
p7928
aVmyapplestuff
p7929
aVgrrrrrr
p7930
aVbathroom
p7931
aVjobless
p7932
aVbeef
p7933
aVropes
p7934
aVbeep
p7935
aVconfident
p7936
aVbeer
p7937
aVbees
p7938
aVexpected
p7939
aVladyleamy
p7940
aVsyaffiazka
p7941
aVxxx
p7942
aVdemotix
p7943
aVjaulin
p7944
aVxxo
p7945
aVdefinetly
p7946
aVcracker
p7947
aVchuffed
p7948
aVyourhealth
p7949
aVstopping
p7950
aVtransfering
p7951
aVprocedure
p7952
aVveronica
p7953
aVgeminis
p7954
aVaccessories
p7955
aVexperts
p7956
aVmaya
p7957
aVlottie
p7958
aVcooool
p7959
aVgspowart
p7960
aVwound
p7961
aVforehead
p7962
aVcomplex
p7963
aVshawty
p7964
aVwount
p7965
aVmayo
p7966
aVscrew
p7967
aVrorybecker
p7968
aVcoachella
p7969
aVspringtime
p7970
aVwyldceltic
p7971
aVfridays
p7972
aVportal
p7973
aVpositives
p7974
aVmentioning
p7975
aVdylan
p7976
aVaise
p7977
aVangiecas
p7978
aVuploading
p7979
aVfusion
p7980
aVsavings
p7981
aVgreatest
p7982
aVincapable
p7983
aVmother
p7984
aVhearts
p7985
aValabama
p7986
aVbadassyella
p7987
aVkarina
p7988
aVbugger
p7989
aVunemployment
p7990
aVlaptop
p7991
aVbruise
p7992
aVthumbs
p7993
aVruthnin
p7994
aVnicholasbraun
p7995
aVtweeples
p7996
aVyayfuckbuddies
p7997
aVallaboutenergy
p7998
aVeli
p7999
aVcollars
p8000
aVscorpio
p8001
aVthick
p8002
aVelf
p8003
aVlalonde
p8004
aVpleaaase
p8005
aVeujsme
p8006
aVteenager
p8007
aVtrashed
p8008
aVtaliabatalia
p8009
aVcasting
p8010
aVbands
p8011
aVbreaks
p8012
aVsussex
p8013
aVvulture
p8014
aVcuuuute
p8015
aVnewcastle
p8016
aVangiii
p8017
aVburns
p8018
aVburnt
p8019
aVadvanced
p8020
aVtwitterfon
p8021
aVditto
p8022
aVgift
p8023
aVhunt
p8024
aVorlando
p8025
aVacostic
p8026
aVinformative
p8027
aVphotovia
p8028
aVavatar
p8029
aVtwitterfox
p8030
aVomelette
p8031
aVvanessahudqens
p8032
aVmizzchievouz
p8033
aVgifted
p8034
aVgroupies
p8035
aVzoom
p8036
aVsponge
p8037
aVmalaysia
p8038
aVrin
p8039
aVagencynil
p8040
aVusher
p8041
aVthedaveywavey
p8042
aVick
p8043
aVteemwilliams
p8044
aVcnt
p8045
aVhunn
p8046
aVicc
p8047
aVear
p8048
aVice
p8049
aVrhino
p8050
aVubiquity
p8051
aVcooped
p8052
aVoffices
p8053
aVtvxquknow
p8054
aVchristmas
p8055
aVbooking
p8056
aVict
p8057
aVcord
p8058
aVdeleted
p8059
aVowlcity
p8060
aVhampstead
p8061
aVbrawn
p8062
aVsfarsit
p8063
aVdisappeared
p8064
aVdiscount
p8065
aVdogbook
p8066
aVtortilla
p8067
aVcorr
p8068
aVmandayyy
p8069
aVcalilewis
p8070
aVdeletes
p8071
aVplug
p8072
aVmcpxg
p8073
aVcowboy
p8074
aVtoata
p8075
aVmisleading
p8076
aVsept
p8077
aVduke
p8078
aVaha
p8079
aVppg
p8080
aVfroze
p8081
aVgrahamcolton
p8082
aVlscanlan
p8083
aVahh
p8084
aVahi
p8085
aVfern
p8086
aVentrepreneur
p8087
aVppp
p8088
aVdayyy
p8089
aVelectorate
p8090
aVprocrastinator
p8091
aVcafeteria
p8092
aVanorexic
p8093
aVkjofficial
p8094
aVcreamers
p8095
aVgit
p8096
aVsneezing
p8097
aVtransform
p8098
aVdanielooi
p8099
aVstuck
p8100
aVanderson
p8101
aVfought
p8102
aVgil
p8103
aVhead
p8104
aVmedium
p8105
aVfionaflame
p8106
aVziggychip
p8107
aVdesireedefiant
p8108
aVure
p8109
aVilluminantceo
p8110
aVdifferences
p8111
aVstereo
p8112
aVsarnie
p8113
aVheat
p8114
aVuncle
p8115
aVraylevesque
p8116
aValexderossi
p8117
aVaspieteach
p8118
aVsaabmagalona
p8119
aVviva
p8120
aVmuster
p8121
aVsoju
p8122
aVdollhouse
p8123
aVbargain
p8124
aVruined
p8125
aVadore
p8126
aVlsat
p8127
aVnerds
p8128
aVtrio
p8129
aVtrik
p8130
aVfury
p8131
aVindy
p8132
aVkatieparsons
p8133
aVshines
p8134
aVannoying
p8135
aVcheck
p8136
aVchech
p8137
aVni
p8138
aVnj
p8139
aVnl
p8140
aVayubella
p8141
aVtechs
p8142
aVtit
p8143
aVna
p8144
aVnb
p8145
aVheartofwisdom
p8146
aVtip
p8147
aVne
p8148
aVtis
p8149
aVwher
p8150
aVtim
p8151
aVwhew
p8152
aVdavidatsg
p8153
aVpapers
p8154
aVnp
p8155
aVnr
p8156
aVnt
p8157
aVnv
p8158
aVevergreen
p8159
aVwombat
p8160
aVvivelalyssa
p8161
aVelephant
p8162
aVfootball
p8163
aVbrief
p8164
aVblokes
p8165
aVsql
p8166
aVflushed
p8167
aVscratchy
p8168
aVyounger
p8169
aVapologizing
p8170
aVlonger
p8171
aVoetmannshausen
p8172
aVyacht
p8173
aVbambi
p8174
aVvietnam
p8175
aVgrazeboxtuesday
p8176
aVneighbors
p8177
aVsiredwardcullen
p8178
aVroo
p8179
aVouch
p8180
aVrog
p8181
aVrox
p8182
aVethanchoo
p8183
aVfinnpoitier
p8184
aVlll
p8185
aVcolleen
p8186
aVrot
p8187
aVheadin
p8188
aVnineteen
p8189
aVnetball
p8190
aVcontemplating
p8191
aVknackered
p8192
aVmelon
p8193
aVstove
p8194
aVdex
p8195
aVadvantage
p8196
aVtrident
p8197
aVderren
p8198
aVcook
p8199
aVli
p8200
aVcool
p8201
aVearthday
p8202
aVsucky
p8203
aVyellowsn
p8204
aVphilippines
p8205
aVpeeps
p8206
aVbrother
p8207
aVcloudy
p8208
aVscience
p8209
aVquick
p8210
aVposte
p8211
aVonthebeach
p8212
aVder
p8213
aVpmt
p8214
aVmellyfed
p8215
aVdrier
p8216
aVslower
p8217
aVpms
p8218
aVroadshow
p8219
aVobsolete
p8220
aVcyber
p8221
aVvoucher
p8222
aVcomforting
p8223
aVtrent
p8224
aVashleytisdale
p8225
aVreverielarke
p8226
aVdrinks
p8227
aVceetee
p8228
aVstressful
p8229
aVstands
p8230
aVeverytime
p8231
aVpleased
p8232
aVrayretaliation
p8233
aVallanxpress
p8234
aVcomputerarts
p8235
aVcorn
p8236
aVbuscemi
p8237
aVhairy
p8238
aVtweetle
p8239
aVangelina
p8240
aVpornstars
p8241
aVwater
p8242
aVgroups
p8243
aVcrippled
p8244
aVwaittt
p8245
aVhealthy
p8246
aVrethink
p8247
aVthinkreferrals
p8248
aVbroaska
p8249
aVexams
p8250
aVohonefourthree
p8251
aVhospitality
p8252
aVweird
p8253
aVpersiankiwi
p8254
aVexamz
p8255
aVtweak
p8256
aVpeer
p8257
aVcandice
p8258
aVneurofen
p8259
aVprompt
p8260
aVswallowed
p8261
aVcrisis
p8262
aVandd
p8263
aVmsu
p8264
aVathens
p8265
aVtodai
p8266
aVmsn
p8267
aVprey
p8268
aViphone
p8269
aVprez
p8270
aVmeyer
p8271
aVtoday
p8272
aVandr
p8273
aVtrophy
p8274
aVlawns
p8275
aVsessions
p8276
aVcashier
p8277
aVtwitterin
p8278
aVchocolate
p8279
aVcarnival
p8280
aVhughesy
p8281
aVbeers
p8282
aVwuhu
p8283
aVluvv
p8284
aVsiya
p8285
aVfrankiethesats
p8286
aVedible
p8287
aVnigelhoney
p8288
aVroscoe
p8289
aVmodified
p8290
aVmeatball
p8291
aVpickle
p8292
aVrufus
p8293
aVstreak
p8294
aVnathaliecaron
p8295
aVnursing
p8296
aVstream
p8297
aVsuriehl
p8298
aVpringles
p8299
aVkya
p8300
aVcritic
p8301
aVhapson
p8302
aVdropped
p8303
aVcornflakes
p8304
aVpainkillers
p8305
aVswedish
p8306
aVrubix
p8307
aVphantasialand
p8308
aVsecured
p8309
aVfourth
p8310
aVhihi
p8311
aValabaster
p8312
aVspringfield
p8313
aVleavin
p8314
aVcrashes
p8315
aVclone
p8316
aVwooooop
p8317
aVcrashed
p8318
aVheartbreaking
p8319
aVbirthday
p8320
aVoceanup
p8321
aVcinebo
p8322
aVbenji
p8323
aVunbelievably
p8324
aVheykim
p8325
aVdrained
p8326
aVkbps
p8327
aVdevo
p8328
aVproximus
p8329
aVdevs
p8330
aVinform
p8331
aVreaper
p8332
aVmanana
p8333
aVgerard
p8334
aVrefund
p8335
aVexclusive
p8336
aVcatbook
p8337
aVbonjourvous
p8338
aVmofobamfyo
p8339
aVblocked
p8340
aVdreading
p8341
aVgtg
p8342
aVorganisation
p8343
aVgto
p8344
aVingridmusic
p8345
aVoffers
p8346
aVfarmer
p8347
aVhappened
p8348
aVskythecat
p8349
aVlonely
p8350
aVweathers
p8351
aVdevastated
p8352
aVrealmfox
p8353
aVmerrylands
p8354
aVhamilton
p8355
aVpcnlove
p8356
aVgushing
p8357
aVterm
p8358
aVname
p8359
aVopera
p8360
aVrealistic
p8361
aVpinoy
p8362
aVrealise
p8363
aVselvinortiz
p8364
aVthejeffster
p8365
aVunproductive
p8366
aVbenita
p8367
aVhiccups
p8368
aVwhataburger
p8369
aVpersian
p8370
aVzebra
p8371
aVpercussionpanda
p8372
aVsuzanne
p8373
aVsunrise
p8374
aVultimately
p8375
aVwinplace
p8376
aVjogja
p8377
aVtulips
p8378
aVoklahoma
p8379
aVmakikigirl
p8380
aVhacked
p8381
aVbeeeen
p8382
aVbugging
p8383
aVcraptastic
p8384
aVpodcastrob
p8385
aVjudez
p8386
aVtheory
p8387
aVbrett
p8388
aVboobs
p8389
aVpreviews
p8390
aVhulu
p8391
aVoasis
p8392
aVflyer
p8393
aVgraciedarling
p8394
aVkudoskookies
p8395
aVyup
p8396
aVyuu
p8397
aVmotion
p8398
aVwag
p8399
aVbutterflies
p8400
aVplace
p8401
aVswine
p8402
aVturd
p8403
aVdiscontinued
p8404
aVorigin
p8405
aVgrrrrr
p8406
aVmpieters
p8407
aVacct
p8408
aVarray
p8409
aVgiven
p8410
aVian
p8411
aVvirgin
p8412
aVreatlas
p8413
aVreturns
p8414
aViap
p8415
aVexploring
p8416
aVhug
p8417
aVhub
p8418
aVhum
p8419
aVhun
p8420
aVhurtful
p8421
aVscrewing
p8422
aVshinobistalin
p8423
aVhut
p8424
aVcops
p8425
aVohnotheydidnt
p8426
aValas
p8427
aVamineb
p8428
aVcopy
p8429
aVpopulation
p8430
aVodfs
p8431
aVwide
p8432
aVyoshi
p8433
aVlmao
p8434
aVyayyyy
p8435
aVscoop
p8436
aVtwilighter
p8437
aVpoisoning
p8438
aVoath
p8439
aVdissapointed
p8440
aVpre
p8441
aVjonaskevin
p8442
aVchloe
p8443
aVchrisgarrett
p8444
aVboooo
p8445
aVanu
p8446
aVrent
p8447
aVtylenol
p8448
aVsells
p8449
aVjellibeen
p8450
aVanz
p8451
aVtwitpics
p8452
aVideal
p8453
aVomggg
p8454
aVfracture
p8455
aVbcslaski
p8456
aVsorority
p8457
aVsutil
p8458
aVsure
p8459
aVurgh
p8460
aVfalls
p8461
aVvisitors
p8462
aVconnor
p8463
aVmultiply
p8464
aVthehitlistradio
p8465
aValieninmusic
p8466
aVmatthewlandauer
p8467
aVrosalie
p8468
aVjakarta
p8469
aVchocogal
p8470
aVproud
p8471
aVhungry
p8472
aVshannonherod
p8473
aVtotured
p8474
aVwefii
p8475
aVdetective
p8476
aVnlp
p8477
aVidzr
p8478
aVvettel
p8479
aVseobook
p8480
aVcheap
p8481
aVconvos
p8482
aVspaces
p8483
aVpandji
p8484
aVtrop
p8485
aVmister
p8486
aVjadoremarmite
p8487
aVgule
p8488
aVkarenstl
p8489
aVwoop
p8490
aVshithole
p8491
aVcriticalmmg
p8492
aVhusband
p8493
aVcrime
p8494
aVgulp
p8495
aVwoof
p8496
aVnadia
p8497
aVwooo
p8498
aVdreaded
p8499
aVboyle
p8500
aVwooh
p8501
aViuliamaria
p8502
aVuncles
p8503
aVtayg
p8504
aVmormon
p8505
aVjazz
p8506
aVsso
p8507
aVresponding
p8508
aVssh
p8509
aVdye
p8510
aVhedge
p8511
aVthetelevixen
p8512
aVjuggle
p8513
aVfreaking
p8514
aVreveal
p8515
aVflickr
p8516
aVfloods
p8517
aVcurand
p8518
aVjokes
p8519
aVembassy
p8520
aVclowns
p8521
aVpredicted
p8522
aVdough
p8523
aVignored
p8524
aVradagast
p8525
aVpicnic
p8526
aVgreate
p8527
aVviolated
p8528
aVrma
p8529
aVcollege
p8530
aVparking
p8531
aVapologies
p8532
aVlng
p8533
aVbraden
p8534
aVsmiling
p8535
aVability
p8536
aVddsd
p8537
aVwayy
p8538
aVantonsen
p8539
aVmanaging
p8540
aVreview
p8541
aVknoxville
p8542
aVmth
p8543
aVmags
p8544
aVoutside
p8545
aVhiss
p8546
aVwouldve
p8547
aVsirens
p8548
aVsaucy
p8549
aVbyee
p8550
aVsummmer
p8551
aVale
p8552
aVcoma
p8553
aVmonnie
p8554
aVcomb
p8555
aVcome
p8556
aVloris
p8557
aVapriiiiil
p8558
aVregion
p8559
aVquiet
p8560
aVbadavarascal
p8561
aVprompted
p8562
aVbakeoff
p8563
aVprettiest
p8564
aVtwissup
p8565
aVduty
p8566
aVafterwards
p8567
aVpox
p8568
aVprayed
p8569
aVpov
p8570
aVpow
p8571
aVcolony
p8572
aVpos
p8573
aVpop
p8574
aVpoo
p8575
aVpom
p8576
aVcolon
p8577
aVbabbling
p8578
aVnicola
p8579
aVpoll
p8580
aVpob
p8581
aVnicole
p8582
aVraring
p8583
aVturkey
p8584
aVpoooool
p8585
aVaaje
p8586
aVsubscribed
p8587
aVfilmmakers
p8588
aVgeia
p8589
aVshowin
p8590
aVhelicopter
p8591
aVfeaturing
p8592
aVhardly
p8593
aVmog
p8594
aVnilesc
p8595
aVlemongeneration
p8596
aVbummer
p8597
aVkaon
p8598
aVrobbed
p8599
aVblessing
p8600
aVtiger
p8601
aVholeycoww
p8602
aVminister
p8603
aVandrea
p8604
aVirrelevant
p8605
aVspirit
p8606
aVpilot
p8607
aVcase
p8608
aVhughes
p8609
aVspiderman
p8610
aVitsjustdi
p8611
aVcash
p8612
aVrhymes
p8613
aVcass
p8614
aVshops
p8615
aVlilylauren
p8616
aVjorgeavilam
p8617
aVcooooold
p8618
aVtelephone
p8619
aVnumba
p8620
aVsomeone
p8621
aVsupernaturalamy
p8622
aVpresentations
p8623
aVcunningstunts
p8624
aVsebleedelisle
p8625
aVtrip
p8626
aVmanila
p8627
aVyeahhh
p8628
aVreminder
p8629
aVsency
p8630
aVretweeting
p8631
aVderby
p8632
aVweek
p8633
aVthisisdavina
p8634
aVtipsy
p8635
aVgenius
p8636
aVdownloads
p8637
aVduckies
p8638
aVweee
p8639
aVlatenightcereal
p8640
aVdriven
p8641
aVpersons
p8642
aVstatutory
p8643
aVfootprint
p8644
aVcartoon
p8645
aVfasting
p8646
aVflaked
p8647
aVnn
p8648
aVpennsylvania
p8649
aVrelegation
p8650
aVskankyfish
p8651
aVrecital
p8652
aVlucky
p8653
aVeureka
p8654
aVsherie
p8655
aVsilverwind
p8656
aVwithout
p8657
aVrelief
p8658
aVjanaalyssa
p8659
aVmodel
p8660
aVreward
p8661
aVwhereas
p8662
aVstake
p8663
aVya
p8664
aVactress
p8665
aVjamfactory
p8666
aVviolent
p8667
aVkill
p8668
aVroxana
p8669
aVithaca
p8670
aVsnowin
p8671
aVhalfway
p8672
aVannouncement
p8673
aVloja
p8674
aVbwahahahaha
p8675
aVregent
p8676
aVseems
p8677
aVexcept
p8678
aVblog
p8679
aVmaddisondesigns
p8680
aVlets
p8681
aVcharavel
p8682
aVflashing
p8683
aVvicodin
p8684
aVfridge
p8685
aVdocmikepogi
p8686
aVtweeeeet
p8687
aVcorrecting
p8688
aVfurniture
p8689
aVpackaging
p8690
aVkenyan
p8691
aVpregnant
p8692
aVtowed
p8693
aVblaqkmess
p8694
aVsongkran
p8695
aVsnort
p8696
aVknerten
p8697
aVwwecodyrhodes
p8698
aVjewellery
p8699
aVwahaha
p8700
aVcompetition
p8701
aVreconsider
p8702
aVgarnett
p8703
aVbrantanamo
p8704
aVprovided
p8705
aVmood
p8706
aVdouchebag
p8707
aVwheaties
p8708
aVgoogled
p8709
aVkamen
p8710
aVmoon
p8711
aVsitty
p8712
aVquitting
p8713
aVthedarrenxshow
p8714
aVlmfao
p8715
aVcommunicate
p8716
aVnudist
p8717
aVmdsteelergal
p8718
aVwatarigoro
p8719
aVembarassing
p8720
aVom
p8721
aVfillings
p8722
aVoj
p8723
aVoh
p8724
aVwebserver
p8725
aVshrimp
p8726
aVmutually
p8727
aVkarar
p8728
aVexquisite
p8729
aVoy
p8730
aVyeezy
p8731
aVou
p8732
aVexecs
p8733
aVos
p8734
aVgadisanayafitri
p8735
aVladies
p8736
aVcurses
p8737
aVcursed
p8738
aVlakeview
p8739
aVgary
p8740
aVupstairs
p8741
aVbuds
p8742
aVdislocated
p8743
aVfish
p8744
aVehh
p8745
aVyah
p8746
aVhoda
p8747
aVkittens
p8748
aVshamelessly
p8749
aVreadathon
p8750
aVjun
p8751
aVspose
p8752
aVjul
p8753
aVjuz
p8754
aVcostco
p8755
aVfaster
p8756
aVshauns
p8757
aVtarniecullen
p8758
aVmortals
p8759
aVwille
p8760
aVkoenigsegg
p8761
aVhollietu
p8762
aVflats
p8763
aVchidambaram
p8764
aVgrass
p8765
aVstrongly
p8766
aVmarkhardy
p8767
aVtaylor
p8768
aVcinema
p8769
aVtaste
p8770
aVbritain
p8771
aVnataliagaloengs
p8772
aVfirebug
p8773
aVspends
p8774
aVbyeeee
p8775
aVrumlover
p8776
aVpiracy
p8777
aVdeserve
p8778
aVkacekoga
p8779
aVrubber
p8780
aVregents
p8781
aVdyana
p8782
aVtrash
p8783
aVmummies
p8784
aVchampionship
p8785
aVhwk
p8786
aVspoilers
p8787
aVtopshop
p8788
aVbaltimore
p8789
aVtakamine
p8790
aVincluded
p8791
aVstocks
p8792
aVgrimshaw
p8793
aVhws
p8794
aVomgggggg
p8795
aVmissed
p8796
aVtoywranglers
p8797
aVcarbs
p8798
aVsrry
p8799
aVmegha
p8800
aVcalls
p8801
aVinvest
p8802
aVodds
p8803
aVwifi
p8804
aVcurve
p8805
aVdokey
p8806
aVjennaiswriting
p8807
aVtwitterberry
p8808
aVnumbing
p8809
aVundead
p8810
aVtanned
p8811
aVroh
p8812
aVlace
p8813
aVali
p8814
aVgupta
p8815
aVlack
p8816
aVala
p8817
aVnuttychris
p8818
aVspecialisterne
p8819
aVdish
p8820
aVfollow
p8821
aVmeditation
p8822
aVdisk
p8823
aVpts
p8824
aVptr
p8825
aVkutcher
p8826
aVjessid
p8827
aVjessie
p8828
aVglimpse
p8829
aVdownatheel
p8830
aVpatsytravers
p8831
aVlining
p8832
aVwassup
p8833
aVsubsided
p8834
aVthursday
p8835
aVtessmorris
p8836
aVaaron
p8837
aVprogram
p8838
aVdairy
p8839
aVwoman
p8840
aVworse
p8841
aVsong
p8842
aVdreamnoworg
p8843
aVprint
p8844
aVwondeful
p8845
aVfan
p8846
aVfab
p8847
aVsony
p8848
aVticket
p8849
aVesabel
p8850
aVoffline
p8851
aVfad
p8852
aVtreating
p8853
aVlisp
p8854
aVlist
p8855
aVlish
p8856
aVvibes
p8857
aVundone
p8858
aVhighway
p8859
aVaskaaronlee
p8860
aVlisa
p8861
aVwhinlatter
p8862
aVconflicted
p8863
aVflick
p8864
aVentourage
p8865
aVremainamystery
p8866
aVsjayys
p8867
aVten
p8868
aVtea
p8869
aVtee
p8870
aVbreakers
p8871
aVtex
p8872
aVrate
p8873
aVdesign
p8874
aVnba
p8875
aVhaaa
p8876
aVgunn
p8877
aVwhar
p8878
aVsub
p8879
aVfacebooking
p8880
aVticks
p8881
aVwomp
p8882
aVoverload
p8883
aVsur
p8884
aVcinemas
p8885
aVguns
p8886
aVsux
p8887
aVtoes
p8888
aVtags
p8889
aVjashale
p8890
aVhungover
p8891
aVrakey
p8892
aVshouldn
p8893
aVleeds
p8894
aVmissshonah
p8895
aVdirections
p8896
aVshoulda
p8897
aViphoto
p8898
aVkodomut
p8899
aVkerimcinerney
p8900
aVmyre
p8901
aVexited
p8902
aVsticking
p8903
aVsteffiebay
p8904
aVsaikano
p8905
aVsuddenly
p8906
aVdavidgregory
p8907
aVhahaaa
p8908
aVtexts
p8909
aVsemester
p8910
aVappliances
p8911
aVpdfs
p8912
aVddub
p8913
aVdaydreamlily
p8914
aVfragileheart
p8915
aVtutti
p8916
aVdelights
p8917
aVnetwrking
p8918
aVshits
p8919
aVhappymomamy
p8920
aVbkite
p8921
aVfirefaunx
p8922
aVhurrah
p8923
aVhorses
p8924
aVflat
p8925
aVcapsule
p8926
aVsoothes
p8927
aVdefinition
p8928
aVdis
p8929
aVpairs
p8930
aVthebraysmommy
p8931
aVunstable
p8932
aVflag
p8933
aVstick
p8934
aVknown
p8935
aVmellow
p8936
aVkkmommy
p8937
aVjaredleto
p8938
aVstephenmulhern
p8939
aVeden
p8940
aVshorties
p8941
aVyeaaaah
p8942
aVawesomeee
p8943
aVechelon
p8944
aVboomstickplease
p8945
aVv
aVofficialrandl
p8946
aVjustinpollard
p8947
aVpony
p8948
aVstomachache
p8949
aVrenata
p8950
aVclaps
p8951
aVhipattack
p8952
aVhiiiiii
p8953
aVlibertarian
p8954
aVpond
p8955
aVpong
p8956
aVdurian
p8957
aVchores
p8958
aVgoal
p8959
aVjillygg
p8960
aVrather
p8961
aVbreaking
p8962
aVphelps
p8963
aVmagpie
p8964
aVbuenos
p8965
aVexplains
p8966
aVsandwich
p8967
aVokay
p8968
aValgebra
p8969
aVcancun
p8970
aVdisable
p8971
aVadventure
p8972
aVsoftball
p8973
aVironman
p8974
aVsteveagee
p8975
aVballads
p8976
aVfkn
p8977
aVgothere
p8978
aVshady
p8979
aVdeparture
p8980
aVgrande
p8981
aVhih
p8982
aVseptember
p8983
aVdisabled
p8984
aVisnt
p8985
aVairing
p8986
aVstyle
p8987
aVpaulymshore
p8988
aVunity
p8989
aVscot
p8990
aVdraven
p8991
aVsoccer
p8992
aVpartyin
p8993
aVwouldn
p8994
aVspeechless
p8995
aVframework
p8996
aVmilestone
p8997
aVcommunities
p8998
aVmindofkennedy
p8999
aVbigger
p9000
aVinstructions
p9001
aVbombnomnom
p9002
aVnephews
p9003
aVameym
p9004
aVweight
p9005
aVgeneration
p9006
aVposts
p9007
aVoppressed
p9008
aVweren
p9009
aVduchess
p9010
aVgennargh
p9011
aVironing
p9012
aVwegmusic
p9013
aVbuyxsocks
p9014
aVloopt
p9015
aVlola
p9016
aVmegalife
p9017
aValcohol
p9018
aVpwns
p9019
aVlols
p9020
aVhealth
p9021
aVparadise
p9022
aVbitchass
p9023
aVdefinately
p9024
aVwisconsin
p9025
aVfriday
p9026
aVdiploma
p9027
aVtractors
p9028
aVmennard
p9029
aVhott
p9030
aVcookie
p9031
aVreallly
p9032
aVcookin
p9033
aVblister
p9034
aVtheelfyone
p9035
aVthread
p9036
aVbernadinee
p9037
aVseperately
p9038
aVdeja
p9039
aVichiban
p9040
aVfiao
p9041
aVwld
p9042
aVstickin
p9043
aVassignmenting
p9044
aVdine
p9045
aVdind
p9046
aVfeel
p9047
aVemmabung
p9048
aVtimanderic
p9049
aVlinking
p9050
aVfeet
p9051
aVsympathy
p9052
aVsailor
p9053
aVscots
p9054
aVblank
p9055
aVbland
p9056
aValstrays
p9057
aVtemples
p9058
aVmoan
p9059
aVmaliajonas
p9060
aVtemperature
p9061
aVgourmet
p9062
aVleading
p9063
aVinterviews
p9064
aVgpa
p9065
aVbwoi
p9066
aVstorm
p9067
aVstore
p9068
aVheadache
p9069
aVbivancamp
p9070
aVmaybellinete
p9071
aVrelieved
p9072
aVexploded
p9073
aVhotel
p9074
aVscooby
p9075
aVtreasures
p9076
aVschon
p9077
aVreliever
p9078
aViloveelleb
p9079
aVkina
p9080
aVzachary
p9081
aVdans
p9082
aVaims
p9083
aVoutrageous
p9084
aVoliyoung
p9085
aVhellivina
p9086
aVstalk
p9087
aVdoubly
p9088
aVnathalie
p9089
aVdang
p9090
aVtongues
p9091
aVcleaner
p9092
aVmotivation
p9093
aVjsut
p9094
aVgals
p9095
aVsuspicious
p9096
aValike
p9097
aVcleaned
p9098
aVhelpless
p9099
aVbake
p9100
aVrochester
p9101
aVnighty
p9102
aVchristinehuh
p9103
aVbabyitssel
p9104
aVsandwiches
p9105
aVfinding
p9106
aVmokshjuneja
p9107
aVirritated
p9108
aVeff
p9109
aVbuff
p9110
aVadded
p9111
aVreckon
p9112
aVreach
p9113
aVreact
p9114
aVenduring
p9115
aVsandra
p9116
aVnothing
p9117
aVseasons
p9118
aVboycotting
p9119
aVtweeple
p9120
aVwindows
p9121
aVdoggie
p9122
aVpart
p9123
aVnawong
p9124
aVfone
p9125
aVjishanvn
p9126
aVmohdrafie
p9127
aVattacked
p9128
aVmelody
p9129
aVfont
p9130
aVdespre
p9131
aVetsy
p9132
aVtesticles
p9133
aViep
p9134
aVkthxx
p9135
aVpenalty
p9136
aVsssshenin
p9137
aVindywoodfilms
p9138
aVhip
p9139
aVnickie
p9140
aVhit
p9141
aVtommorow
p9142
aValicia
p9143
aVkristenstewart
p9144
aVwhistle
p9145
aVhic
p9146
aVhid
p9147
aVrocketman
p9148
aVwooooooo
p9149
aVhii
p9150
aVfrumph
p9151
aVbanquet
p9152
aVtco
p9153
aVtimeless
p9154
aVpassons
p9155
aVinvestigate
p9156
aVvincent
p9157
aVtourney
p9158
aVwrote
p9159
aVbars
p9160
aVart
p9161
aVgawd
p9162
aVintelligence
p9163
aVarz
p9164
aVmisspthev
p9165
aVamysav
p9166
aVdumb
p9167
aVbarf
p9168
aVtiffanyr
p9169
aVnap
p9170
aVyouth
p9171
aVatleast
p9172
aVtummy
p9173
aVthecomicproject
p9174
aVnailed
p9175
aVnutella
p9176
aVcancelling
p9177
aVrecently
p9178
aVuuu
p9179
aVsold
p9180
aVwohoo
p9181
aVoutfit
p9182
aVuue
p9183
aVhadiqazeeshan
p9184
aVprescription
p9185
aVnathaliemc
p9186
aVrollers
p9187
aVfinds
p9188
aVcynic
p9189
aVflies
p9190
aVreasons
p9191
aVsweet
p9192
aVsweep
p9193
aVepicfail
p9194
aVcrisps
p9195
aVvillage
p9196
aVrave
p9197
aVcrispy
p9198
aVtiamat
p9199
aVpr
p9200
aVasleeep
p9201
aVdum
p9202
aVladylogan
p9203
aVpx
p9204
aVdue
p9205
aVpc
p9206
aVwhoo
p9207
aVpe
p9208
aVorioles
p9209
aVwhoa
p9210
aVpl
p9211
aVpm
p9212
aVakong
p9213
aVflight
p9214
aVexxy
p9215
aVbradradke
p9216
aVrocking
p9217
aVwebmage
p9218
aVstolen
p9219
aVfrozen
p9220
aVballoons
p9221
aVahah
p9222
aVhomework
p9223
aVmple
p9224
aVjustjennyxo
p9225
aVtheres
p9226
aVdublin
p9227
aVrip
p9228
aVdisappointing
p9229
aVdemos
p9230
aVfrantic
p9231
aVrid
p9232
aVrib
p9233
aVtwilightpsycho
p9234
aVnoooo
p9235
aVcarolynhunnie
p9236
aVpeoples
p9237
aVdhpol
p9238
aValdean
p9239
aVitchy
p9240
aVspears
p9241
aVobrigada
p9242
aVarrives
p9243
aVflows
p9244
aVholidays
p9245
aVevalltimelow
p9246
aVflown
p9247
aVarrived
p9248
aVwheres
p9249
aVlower
p9250
aVhagd
p9251
aValivicwil
p9252
aVtherealryanhiga
p9253
aVatcha
p9254
aVaaliyahlove
p9255
aVcheer
p9256
aVstarved
p9257
aVcheez
p9258
aVaways
p9259
aVpollen
p9260
aVprecedence
p9261
aVdarrenhayes
p9262
aVpigeons
p9263
aVepcot
p9264
aVcouch
p9265
aVgems
p9266
aVfreakishly
p9267
aVloading
p9268
aVworkers
p9269
aVseanmurphymusic
p9270
aVexhibition
p9271
aVhoneyjune
p9272
aVyesturday
p9273
aVobligatory
p9274
aVnbatvandre
p9275
aVflipperville
p9276
aVdvds
p9277
aVambien
p9278
aVsittin
p9279
aVunlimited
p9280
aVlovin
p9281
aVkasi
p9282
aVmekkanikal
p9283
aVjacksonville
p9284
aVmoody
p9285
aVmariah
p9286
aVhahha
p9287
aVliams
p9288
aVavatars
p9289
aVshapes
p9290
aVirishlad
p9291
aVnipple
p9292
aVartemisiii
p9293
aVshanedawson
p9294
aVfolders
p9295
aVfucking
p9296
aVstreaming
p9297
aVncnss
p9298
aVgschan
p9299
aVyooou
p9300
aVsimonekali
p9301
aVluckyy
p9302
aVcjbaran
p9303
aVmeds
p9304
aVprom
p9305
aVretro
p9306
aVinnovation
p9307
aVprog
p9308
aVprof
p9309
aVprob
p9310
aVzzz
p9311
aVjumps
p9312
aVnicolerichie
p9313
aVzombie
p9314
aVtysreflections
p9315
aVrefuses
p9316
aVbitchville
p9317
aVstaycaked
p9318
aVqueensapphyre
p9319
aVcompleting
p9320
aVplaza
p9321
aVbrooklyn
p9322
aVrange
p9323
aVcece
p9324
aVcomplimentary
p9325
aVwanna
p9326
aVdwight
p9327
aVgatwick
p9328
aVauntie
p9329
aVmommy
p9330
aVjohns
p9331
aVtombot
p9332
aVgudnyt
p9333
aVdoguk
p9334
aVchimps
p9335
aVcanal
p9336
aVimpressed
p9337
aVricklondon
p9338
aVschmidtultra
p9339
aVextremely
p9340
aVquestion
p9341
aVbiocera
p9342
aVlong
p9343
aVzxonnnnn
p9344
aVvendors
p9345
aVpreordered
p9346
aVetch
p9347
aVanalyze
p9348
aVduffbert
p9349
aVfiles
p9350
aVmountains
p9351
aVgiggling
p9352
aVcrank
p9353
aVwnt
p9354
aVdelta
p9355
aVshowcase
p9356
aVyardhouse
p9357
aVgilbirmingham
p9358
aVshaktijs
p9359
aVcaller
p9360
aVz
aVhunwick
p9361
aVsplont
p9362
aVshashitharoor
p9363
aVreyt
p9364
aVblahh
p9365
aVdisgusted
p9366
aVrally
p9367
aVrainy
p9368
aVgrr
p9369
aVtesco
p9370
aVbacks
p9371
aVandyroddick
p9372
aVnick
p9373
aVswati
p9374
aVnico
p9375
aVtineeepie
p9376
aVraina
p9377
aVnice
p9378
aVdale
p9379
aVspwc
p9380
aVefssecretdghter
p9381
aVmissin
p9382
aVamyshell
p9383
aVhelping
p9384
aVmeaning
p9385
aVposters
p9386
aVshannyrpi
p9387
aVtheclockworkbox
p9388
aVkx
p9389
aVhappier
p9390
aVwaxing
p9391
aVweights
p9392
aVaccidental
p9393
aVpervert
p9394
aVemeralddiscount
p9395
aVissued
p9396
aVresistance
p9397
aVjenicahendrix
p9398
aValien
p9399
aVwindy
p9400
aVphilosopher
p9401
aVscreen
p9402
aVissues
p9403
aVanglia
p9404
aVsimon
p9405
aVbrighit
p9406
aVshanghai
p9407
aVpaupaula
p9408
aVjazzieblue
p9409
aVcuppa
p9410
aVsteeping
p9411
aVstable
p9412
aVgini
p9413
aVmainstream
p9414
aVtoenail
p9415
aVeeee
p9416
aVspoon
p9417
aVwishes
p9418
aVaccesshollywood
p9419
aVdrinking
p9420
aVeeek
p9421
aVcongrats
p9422
aVdisclaimer
p9423
aVpleas
p9424
aVsensation
p9425
aVjazzybam
p9426
aVreunion
p9427
aVsciatica
p9428
aVswayshay
p9429
aVunavailable
p9430
aVkris
p9431
aVscreenshots
p9432
aVcapital
p9433
aVflavoured
p9434
aVjarnail
p9435
aVexplore
p9436
aVmarifelden
p9437
aVsexy
p9438
aVleaving
p9439
aVbndesign
p9440
aVcrunkstella
p9441
aVsheila
p9442
aVexaminations
p9443
aVshovel
p9444
aVapple
p9445
aVapr
p9446
aVredy
p9447
aVapi
p9448
aVmotor
p9449
aVredd
p9450
aVwil
p9451
aVapply
p9452
aVredo
p9453
aVsheblondeswede
p9454
aVcorrupted
p9455
aVfed
p9456
aVfee
p9457
aVusb
p9458
aVconsumption
p9459
aViced
p9460
aVprocrastinate
p9461
aVsorrrry
p9462
aVreedstar
p9463
aVdreams
p9464
aVclever
p9465
aVbitly
p9466
aVinclined
p9467
aVlocal
p9468
aVinfection
p9469
aVsore
p9470
aVreallyreallyreally
p9471
aVxams
p9472
aVbullyinguk
p9473
aVkissability
p9474
aVwomen
p9475
aVstumbleupon
p9476
aVnixed
p9477
aVmidterm
p9478
aVsaddle
p9479
aVtinted
p9480
aVnda
p9481
aVanywhere
p9482
aVaight
p9483
aVaweful
p9484
aVndc
p9485
aVteearnstack
p9486
aVproof
p9487
aVtat
p9488
aVtau
p9489
aVtap
p9490
aVmowing
p9491
aVinaccessible
p9492
aVtax
p9493
aVtay
p9494
aVurban
p9495
aVzotheysay
p9496
aVtab
p9497
aVtac
p9498
aVtam
p9499
aVserial
p9500
aVtao
p9501
aVonions
p9502
aVsir
p9503
aVsip
p9504
aVsyndrome
p9505
aVmemorize
p9506
aVquestlove
p9507
aVcheydee
p9508
aVbunged
p9509
aVepiphany
p9510
aVyayyyyy
p9511
aVbigwavedude
p9512
aVsid
p9513
aVinstead
p9514
aVpanic
p9515
aVsin
p9516
aVwhaddup
p9517
aVurbaninformer
p9518
aVattend
p9519
aVbertie
p9520
aVtack
p9521
aVwrist
p9522
aVtaco
p9523
aVhahahaha
p9524
aVtweetlater
p9525
aVhonestly
p9526
aVcrawling
p9527
aVdisturbia
p9528
aVyumiatanimax
p9529
aVbanyak
p9530
aVreeling
p9531
aVcompass
p9532
aVwawa
p9533
aVjoanna
p9534
aVmraz
p9535
aVfreezes
p9536
aVcharlene
p9537
aVspotify
p9538
aVorangy
p9539
aVships
p9540
aVnostalgia
p9541
aVnostalgic
p9542
aVchoose
p9543
aVreilly
p9544
aVorange
p9545
aVcovered
p9546
aVjazzy
p9547
aVrsvp
p9548
aVcrash
p9549
aVwolfgang
p9550
aVpractice
p9551
aVleisure
p9552
aVflew
p9553
aVinvitations
p9554
aVnfg
p9555
aVsherrymain
p9556
aVnfl
p9557
aVcorndog
p9558
aVbilly
p9559
aVcocker
p9560
aVfiddle
p9561
aVeases
p9562
aVmissnixs
p9563
aVlilac
p9564
aVhyun
p9565
aVwazza
p9566
aVrelated
p9567
aVcouldnt
p9568
aVobvs
p9569
aVsentiment
p9570
aVitslauraduggan
p9571
aVkritia
p9572
aVdvbl
p9573
aVwhooped
p9574
aVseesmic
p9575
aVdongwayne
p9576
aVokey
p9577
aVdisapointed
p9578
aVsounders
p9579
aVrewrote
p9580
aVlittlewindmill
p9581
aVmoochergirl
p9582
aVipod
p9583
aVcarjacked
p9584
aVmolly
p9585
aVwagamama
p9586
aVusual
p9587
aVkevinjholmes
p9588
aVmelaniengzuer
p9589
aVhunny
p9590
aVval
p9591
aVg
aVsanjukta
p9592
aVconversation
p9593
aVbelladonna
p9594
aVhunni
p9595
aVchiniehdiaz
p9596
aVltd
p9597
aVhence
p9598
aVionic
p9599
aVtimbers
p9600
aVcinderella
p9601
aVbouquet
p9602
aVkatybasey
p9603
aVrafik
p9604
aVtwat
p9605
aVwalter
p9606
aVecht
p9607
aVtwas
p9608
aVrovers
p9609
aVheroes
p9610
aVintention
p9611
aVbmore
p9612
aVmyspace
p9613
aVpouts
p9614
aVpriority
p9615
aVmrskutcher
p9616
aVphotoshopped
p9617
aVheatherosborn
p9618
aVkovshenin
p9619
aVacademy
p9620
aVdoomed
p9621
aVdebate
p9622
aVslides
p9623
aVemilychang
p9624
aVcomedyqueen
p9625
aVboring
p9626
aVlion
p9627
aVtommy
p9628
aVpatients
p9629
aVvat
p9630
aVswayze
p9631
aVdevinthedude
p9632
aVmonicafrancesca
p9633
aVhannaumar
p9634
aVcricket
p9635
aVbluephoenix
p9636
aVblip
p9637
aVhy
p9638
aVilanbr
p9639
aVlinked
p9640
aVunbearable
p9641
aVafraid
p9642
aVangle
p9643
aVroux
p9644
aVallergies
p9645
aVterakopian
p9646
aVkristi
p9647
aVlachatnoir
p9648
aVcombat
p9649
aVknees
p9650
aVpetrol
p9651
aVcollaboration
p9652
aVwhr
p9653
aVyuukicherry
p9654
aVclass
p9655
aVrefreshing
p9656
aVsaddest
p9657
aVatypical
p9658
aVlooked
p9659
aVmcrmuffin
p9660
aVstrawberries
p9661
aVbrendo
p9662
aVescobar
p9663
aVpleaser
p9664
aVplanning
p9665
aVbrends
p9666
aVseaweed
p9667
aVutter
p9668
aVfeat
p9669
aVagrees
p9670
aVflogos
p9671
aVha
p9672
aVhf
p9673
aVsunflowers
p9674
aVhd
p9675
aVbogged
p9676
aVfreckles
p9677
aVrashadmc
p9678
aVthousands
p9679
aVgodiegogo
p9680
aVstfusquare
p9681
aVcube
p9682
aVworkin
p9683
aVonee
p9684
aVmonuments
p9685
aVawwh
p9686
aVwoooooo
p9687
aVcubs
p9688
aVwords
p9689
aVbluray
p9690
aVmouthful
p9691
aVqq
p9692
aVqu
p9693
aVtruee
p9694
aVtitus
p9695
aVqz
p9696
aVbabygirlparis
p9697
aVqc
p9698
aVripley
p9699
aVqd
p9700
aVview
p9701
aVpredictive
p9702
aVogre
p9703
aVarsed
p9704
aVelfiray
p9705
aVgahh
p9706
aVtimeeee
p9707
aVcairns
p9708
aVdrakknar
p9709
aVgmail
p9710
aVcloset
p9711
aVphdinparenting
p9712
aVxray
p9713
aVkittehs
p9714
aVmexicans
p9715
aVconverted
p9716
aVclosed
p9717
aVcrude
p9718
aVfrustrated
p9719
aVdmu
p9720
aVbrewing
p9721
aVexam
p9722
aVamen
p9723
aVsarahdessen
p9724
aVpumped
p9725
aVjustinsxe
p9726
aVembarrassment
p9727
aVjob
p9728
aVjoe
p9729
aVspoil
p9730
aVjog
p9731
aVjoi
p9732
aVswift
p9733
aVjon
p9734
aVtitties
p9735
aVapril
p9736
aVrrrrobby
p9737
aVdhewlett
p9738
aVgrounds
p9739
aVtherealingrosso
p9740
aVhehehe
p9741
aVsaraparker
p9742
aVwala
p9743
aVwall
p9744
aVinspiredwriting
p9745
aVladyxmusic
p9746
aVmickycook
p9747
aVdresinatra
p9748
aVwalk
p9749
aVhobnobsftww
p9750
aVsubscribe
p9751
aVrespect
p9752
aVdecent
p9753
aVtutor
p9754
aVgrazie
p9755
aVremedies
p9756
aVmike
p9757
aVnevidge
p9758
aVpuberty
p9759
aVhazalselena
p9760
aVpainted
p9761
aVastros
p9762
aVspammer
p9763
aVcrappy
p9764
aVhmm
p9765
aVhmn
p9766
aVcavorting
p9767
aVpresent
p9768
aVabandoned
p9769
aVunlike
p9770
aVjovialjen
p9771
aVwilw
p9772
aVstunning
p9773
aVantigua
p9774
aVplead
p9775
aVdswints
p9776
aVrashellereid
p9777
aVringing
p9778
aVthus
p9779
aVthur
p9780
aVrooster
p9781
aVcourtneycummz
p9782
aVgothic
p9783
aVoneindia
p9784
aVava
p9785
aVmitchelmusso
p9786
aVgetn
p9787
aVyessssssss
p9788
aVunite
p9789
aVfanafatin
p9790
aVmurano
p9791
aVvintagy
p9792
aVconversations
p9793
aVgigdiary
p9794
aVgets
p9795
aVgnight
p9796
aVdifficult
p9797
aVnevershoutnever
p9798
aVslave
p9799
aVmakasih
p9800
aVtweetdeck
p9801
aVdaleeast
p9802
aVarre
p9803
aVromeo
p9804
aVbeast
p9805
aVyoox
p9806
aVsuzi
p9807
aVyoou
p9808
aVpedal
p9809
aVwhale
p9810
aVthanxxx
p9811
aVarse
p9812
aVceltic
p9813
aVrealises
p9814
aVapprove
p9815
aVbanging
p9816
aVfighting
p9817
aVdrewryanscott
p9818
aVgutted
p9819
aVpandadementia
p9820
aVenglish
p9821
aVislesrebelangel
p9822
aVrealised
p9823
aVrocker
p9824
aVolli
p9825
aVmfc
p9826
aVexcessive
p9827
aVcried
p9828
aVheavily
p9829
aVwren
p9830
aVwoga
p9831
aVcries
p9832
aVbatteries
p9833
aVrocked
p9834
aVdmakron
p9835
aVhappiness
p9836
aVtca
p9837
aVnicky
p9838
aVconsole
p9839
aVnicks
p9840
aVsmith
p9841
aVsnwpaul
p9842
aVclyde
p9843
aVsmart
p9844
aVearthquakes
p9845
aVsarahsaturday
p9846
aVsingstar
p9847
aVsick
p9848
aVmyth
p9849
aVllubyloo
p9850
aVmasih
p9851
aVleon
p9852
aVmelissaongsc
p9853
aVferal
p9854
aVemeryville
p9855
aVheyyyyyy
p9856
aVmiami
p9857
aVloser
p9858
aVmsmartinez
p9859
aVvirginity
p9860
aVscared
p9861
aVscottish
p9862
aVmosquitoes
p9863
aVtumblr
p9864
aVplatforms
p9865
aVempire
p9866
aVmeatloaf
p9867
aVneglecting
p9868
aVsharmainerae
p9869
aVleaf
p9870
aVtotty
p9871
aVmines
p9872
aVleal
p9873
aVsharonashton
p9874
aVleoblog
p9875
aVripped
p9876
aVuggggh
p9877
aVkeri
p9878
aVfearnecotton
p9879
aVslut
p9880
aVpasta
p9881
aVrare
p9882
aVgetting
p9883
aVcolumn
p9884
aVspilled
p9885
aVcarries
p9886
aVmrnokill
p9887
aVsaddens
p9888
aVperky
p9889
aVstab
p9890
aVbiansta
p9891
aVwarranty
p9892
aVem
p9893
aVpolished
p9894
aVxoxox
p9895
aVlimi
p9896
aVtravelers
p9897
aVwhitby
p9898
aVumbraco
p9899
aVloner
p9900
aVsqueak
p9901
aVweather
p9902
aVpromise
p9903
aVowt
p9904
aVoww
p9905
aVianjamespoulter
p9906
aVyankee
p9907
aVstressfull
p9908
aVkellikanyon
p9909
aVappt
p9910
aVapps
p9911
aVspiral
p9912
aVkidding
p9913
aVovertime
p9914
aVdanzodanzo
p9915
aVseein
p9916
aVcairo
p9917
aVvas
p9918
aVfollowme
p9919
aVanymoreee
p9920
aVkhloekardashian
p9921
aVshane
p9922
aVfunds
p9923
aVbitches
p9924
aVyeah
p9925
aVcontradictory
p9926
aVgranny
p9927
aVcoool
p9928
aVmade
p9929
aVprotesting
p9930
aVembracewind
p9931
aVrecord
p9932
aVreplay
p9933
aVcake
p9934
aVgefeliciteerd
p9935
aVex
p9936
aVmyy
p9937
aVcmon
p9938
aVjenny
p9939
aVhorrific
p9940
aVnrj
p9941
aVblazing
p9942
aVmys
p9943
aVproblogger
p9944
aVniley
p9945
aVmaroon
p9946
aVveishea
p9947
aVmussomitchel
p9948
aVdomesticated
p9949
aVew
p9950
aVincredible
p9951
aVboot
p9952
aVillinois
p9953
aVbook
p9954
aVfieryfoods
p9955
aVboom
p9956
aVbranch
p9957
aVbooo
p9958
aVincredibly
p9959
aVscim
p9960
aVphish
p9961
aVcontacting
p9962
aVconclusion
p9963
aVkinds
p9964
aVdeffs
p9965
aVjuno
p9966
aVjune
p9967
aVshown
p9968
aVpumps
p9969
aVkinda
p9970
aVliamyoung
p9971
aVollyog
p9972
aVdeffo
p9973
aVsheri
p9974
aVtomoz
p9975
aVranks
p9976
aVfritz
p9977
aVintentionally
p9978
aVheidi
p9979
aVtwtr
p9980
aVtonnes
p9981
aVlaundromat
p9982
aVthebibik
p9983
aVsash
p9984
atRp9985
.